
qmisc:     file format elf64-x86-64


Disassembly of section .init:

00000000000005a0 <_init>:
 5a0:	48 83 ec 08          	sub    $0x8,%rsp
 5a4:	48 8b 05 3d 1a 20 00 	mov    0x201a3d(%rip),%rax        # 201fe8 <__gmon_start__>
 5ab:	48 85 c0             	test   %rax,%rax
 5ae:	74 02                	je     5b2 <_init+0x12>
 5b0:	ff d0                	callq  *%rax
 5b2:	48 83 c4 08          	add    $0x8,%rsp
 5b6:	c3                   	retq   

Disassembly of section .plt:

00000000000005c0 <.plt>:
 5c0:	ff 35 42 1a 20 00    	pushq  0x201a42(%rip)        # 202008 <_GLOBAL_OFFSET_TABLE_+0x8>
 5c6:	ff 25 44 1a 20 00    	jmpq   *0x201a44(%rip)        # 202010 <_GLOBAL_OFFSET_TABLE_+0x10>
 5cc:	0f 1f 40 00          	nopl   0x0(%rax)

00000000000005d0 <_IO_putc@plt>:
 5d0:	ff 25 42 1a 20 00    	jmpq   *0x201a42(%rip)        # 202018 <_IO_putc@GLIBC_2.2.5>
 5d6:	68 00 00 00 00       	pushq  $0x0
 5db:	e9 e0 ff ff ff       	jmpq   5c0 <.plt>

00000000000005e0 <_IO_getc@plt>:
 5e0:	ff 25 3a 1a 20 00    	jmpq   *0x201a3a(%rip)        # 202020 <_IO_getc@GLIBC_2.2.5>
 5e6:	68 01 00 00 00       	pushq  $0x1
 5eb:	e9 d0 ff ff ff       	jmpq   5c0 <.plt>

Disassembly of section .plt.got:

00000000000005f0 <__cxa_finalize@plt>:
 5f0:	ff 25 02 1a 20 00    	jmpq   *0x201a02(%rip)        # 201ff8 <__cxa_finalize@GLIBC_2.2.5>
 5f6:	66 90                	xchg   %ax,%ax

Disassembly of section .text:

0000000000000600 <main>:
     600:	31 c0                	xor    %eax,%eax
     602:	e9 a9 03 00 00       	jmpq   9b0 <exampleProgram>
     607:	66 0f 1f 84 00 00 00 	nopw   0x0(%rax,%rax,1)
     60e:	00 00 

0000000000000610 <_start>:
     610:	31 ed                	xor    %ebp,%ebp
     612:	49 89 d1             	mov    %rdx,%r9
     615:	5e                   	pop    %rsi
     616:	48 89 e2             	mov    %rsp,%rdx
     619:	48 83 e4 f0          	and    $0xfffffffffffffff0,%rsp
     61d:	50                   	push   %rax
     61e:	54                   	push   %rsp
     61f:	4c 8d 05 fa 0b 00 00 	lea    0xbfa(%rip),%r8        # 1220 <__libc_csu_fini>
     626:	48 8d 0d 83 0b 00 00 	lea    0xb83(%rip),%rcx        # 11b0 <__libc_csu_init>
     62d:	48 8d 3d cc ff ff ff 	lea    -0x34(%rip),%rdi        # 600 <main>
     634:	ff 15 a6 19 20 00    	callq  *0x2019a6(%rip)        # 201fe0 <__libc_start_main@GLIBC_2.2.5>
     63a:	f4                   	hlt    
     63b:	0f 1f 44 00 00       	nopl   0x0(%rax,%rax,1)

0000000000000640 <deregister_tm_clones>:
     640:	48 8d 3d f1 19 20 00 	lea    0x2019f1(%rip),%rdi        # 202038 <__TMC_END__>
     647:	55                   	push   %rbp
     648:	48 8d 05 e9 19 20 00 	lea    0x2019e9(%rip),%rax        # 202038 <__TMC_END__>
     64f:	48 39 f8             	cmp    %rdi,%rax
     652:	48 89 e5             	mov    %rsp,%rbp
     655:	74 19                	je     670 <deregister_tm_clones+0x30>
     657:	48 8b 05 7a 19 20 00 	mov    0x20197a(%rip),%rax        # 201fd8 <_ITM_deregisterTMCloneTable>
     65e:	48 85 c0             	test   %rax,%rax
     661:	74 0d                	je     670 <deregister_tm_clones+0x30>
     663:	5d                   	pop    %rbp
     664:	ff e0                	jmpq   *%rax
     666:	66 2e 0f 1f 84 00 00 	nopw   %cs:0x0(%rax,%rax,1)
     66d:	00 00 00 
     670:	5d                   	pop    %rbp
     671:	c3                   	retq   
     672:	0f 1f 40 00          	nopl   0x0(%rax)
     676:	66 2e 0f 1f 84 00 00 	nopw   %cs:0x0(%rax,%rax,1)
     67d:	00 00 00 

0000000000000680 <register_tm_clones>:
     680:	48 8d 3d b1 19 20 00 	lea    0x2019b1(%rip),%rdi        # 202038 <__TMC_END__>
     687:	48 8d 35 aa 19 20 00 	lea    0x2019aa(%rip),%rsi        # 202038 <__TMC_END__>
     68e:	55                   	push   %rbp
     68f:	48 29 fe             	sub    %rdi,%rsi
     692:	48 89 e5             	mov    %rsp,%rbp
     695:	48 c1 fe 03          	sar    $0x3,%rsi
     699:	48 89 f0             	mov    %rsi,%rax
     69c:	48 c1 e8 3f          	shr    $0x3f,%rax
     6a0:	48 01 c6             	add    %rax,%rsi
     6a3:	48 d1 fe             	sar    %rsi
     6a6:	74 18                	je     6c0 <register_tm_clones+0x40>
     6a8:	48 8b 05 41 19 20 00 	mov    0x201941(%rip),%rax        # 201ff0 <_ITM_registerTMCloneTable>
     6af:	48 85 c0             	test   %rax,%rax
     6b2:	74 0c                	je     6c0 <register_tm_clones+0x40>
     6b4:	5d                   	pop    %rbp
     6b5:	ff e0                	jmpq   *%rax
     6b7:	66 0f 1f 84 00 00 00 	nopw   0x0(%rax,%rax,1)
     6be:	00 00 
     6c0:	5d                   	pop    %rbp
     6c1:	c3                   	retq   
     6c2:	0f 1f 40 00          	nopl   0x0(%rax)
     6c6:	66 2e 0f 1f 84 00 00 	nopw   %cs:0x0(%rax,%rax,1)
     6cd:	00 00 00 

00000000000006d0 <__do_global_dtors_aux>:
     6d0:	80 3d 81 19 20 00 00 	cmpb   $0x0,0x201981(%rip)        # 202058 <completed.7001>
     6d7:	75 2f                	jne    708 <__do_global_dtors_aux+0x38>
     6d9:	48 83 3d 17 19 20 00 	cmpq   $0x0,0x201917(%rip)        # 201ff8 <__cxa_finalize@GLIBC_2.2.5>
     6e0:	00 
     6e1:	55                   	push   %rbp
     6e2:	48 89 e5             	mov    %rsp,%rbp
     6e5:	74 0c                	je     6f3 <__do_global_dtors_aux+0x23>
     6e7:	48 8b 3d 42 19 20 00 	mov    0x201942(%rip),%rdi        # 202030 <__dso_handle>
     6ee:	e8 fd fe ff ff       	callq  5f0 <__cxa_finalize@plt>
     6f3:	e8 48 ff ff ff       	callq  640 <deregister_tm_clones>
     6f8:	c6 05 59 19 20 00 01 	movb   $0x1,0x201959(%rip)        # 202058 <completed.7001>
     6ff:	5d                   	pop    %rbp
     700:	c3                   	retq   
     701:	0f 1f 80 00 00 00 00 	nopl   0x0(%rax)
     708:	f3 c3                	repz retq 
     70a:	66 0f 1f 44 00 00    	nopw   0x0(%rax,%rax,1)

0000000000000710 <frame_dummy>:
     710:	55                   	push   %rbp
     711:	48 89 e5             	mov    %rsp,%rbp
     714:	5d                   	pop    %rbp
     715:	e9 66 ff ff ff       	jmpq   680 <register_tm_clones>
     71a:	66 0f 1f 44 00 00    	nopw   0x0(%rax,%rax,1)

0000000000000720 <safe>:
     720:	89 f8                	mov    %edi,%eax
     722:	66 25 ff 7f          	and    $0x7fff,%ax
     726:	c3                   	retq   
     727:	66 0f 1f 84 00 00 00 	nopw   0x0(%rax,%rax,1)
     72e:	00 00 

0000000000000730 <enbyte>:
     730:	40 0f b6 c7          	movzbl %dil,%eax
     734:	c3                   	retq   
     735:	90                   	nop
     736:	66 2e 0f 1f 84 00 00 	nopw   %cs:0x0(%rax,%rax,1)
     73d:	00 00 00 

0000000000000740 <enrange>:
     740:	89 f8                	mov    %edi,%eax
     742:	66 25 ff 7f          	and    $0x7fff,%ax
     746:	c3                   	retq   
     747:	66 0f 1f 84 00 00 00 	nopw   0x0(%rax,%rax,1)
     74e:	00 00 

0000000000000750 <enshift>:
     750:	89 f8                	mov    %edi,%eax
     752:	83 e0 1f             	and    $0x1f,%eax
     755:	c3                   	retq   
     756:	66 2e 0f 1f 84 00 00 	nopw   %cs:0x0(%rax,%rax,1)
     75d:	00 00 00 

0000000000000760 <Add>:
     760:	0f b7 05 0d 19 20 00 	movzwl 0x20190d(%rip),%eax        # 202074 <vB>
     767:	66 01 05 08 19 20 00 	add    %ax,0x201908(%rip)        # 202076 <vA>
     76e:	c3                   	retq   
     76f:	90                   	nop

0000000000000770 <Sub>:
     770:	0f b7 05 fd 18 20 00 	movzwl 0x2018fd(%rip),%eax        # 202074 <vB>
     777:	66 29 05 f8 18 20 00 	sub    %ax,0x2018f8(%rip)        # 202076 <vA>
     77e:	c3                   	retq   
     77f:	90                   	nop

0000000000000780 <Or>:
     780:	0f b7 05 ed 18 20 00 	movzwl 0x2018ed(%rip),%eax        # 202074 <vB>
     787:	66 09 05 e8 18 20 00 	or     %ax,0x2018e8(%rip)        # 202076 <vA>
     78e:	c3                   	retq   
     78f:	90                   	nop

0000000000000790 <And>:
     790:	0f b7 05 dd 18 20 00 	movzwl 0x2018dd(%rip),%eax        # 202074 <vB>
     797:	66 21 05 d8 18 20 00 	and    %ax,0x2018d8(%rip)        # 202076 <vA>
     79e:	c3                   	retq   
     79f:	90                   	nop

00000000000007a0 <Xor>:
     7a0:	0f b7 05 cd 18 20 00 	movzwl 0x2018cd(%rip),%eax        # 202074 <vB>
     7a7:	66 31 05 c8 18 20 00 	xor    %ax,0x2018c8(%rip)        # 202076 <vA>
     7ae:	c3                   	retq   
     7af:	90                   	nop

00000000000007b0 <Shl>:
     7b0:	0f b7 05 bf 18 20 00 	movzwl 0x2018bf(%rip),%eax        # 202076 <vA>
     7b7:	0f b7 0d b6 18 20 00 	movzwl 0x2018b6(%rip),%ecx        # 202074 <vB>
     7be:	d3 e0                	shl    %cl,%eax
     7c0:	66 89 05 af 18 20 00 	mov    %ax,0x2018af(%rip)        # 202076 <vA>
     7c7:	c3                   	retq   
     7c8:	0f 1f 84 00 00 00 00 	nopl   0x0(%rax,%rax,1)
     7cf:	00 

00000000000007d0 <Shr>:
     7d0:	0f b7 05 9f 18 20 00 	movzwl 0x20189f(%rip),%eax        # 202076 <vA>
     7d7:	0f b7 0d 96 18 20 00 	movzwl 0x201896(%rip),%ecx        # 202074 <vB>
     7de:	d3 f8                	sar    %cl,%eax
     7e0:	66 89 05 8f 18 20 00 	mov    %ax,0x20188f(%rip)        # 202076 <vA>
     7e7:	c3                   	retq   
     7e8:	0f 1f 84 00 00 00 00 	nopl   0x0(%rax,%rax,1)
     7ef:	00 

00000000000007f0 <Get>:
     7f0:	0f b7 05 7d 18 20 00 	movzwl 0x20187d(%rip),%eax        # 202074 <vB>
     7f7:	48 8d 15 82 18 20 00 	lea    0x201882(%rip),%rdx        # 202080 <dm>
     7fe:	25 ff 7f 00 00       	and    $0x7fff,%eax
     803:	0f b7 04 42          	movzwl (%rdx,%rax,2),%eax
     807:	66 89 05 68 18 20 00 	mov    %ax,0x201868(%rip)        # 202076 <vA>
     80e:	c3                   	retq   
     80f:	90                   	nop

0000000000000810 <Put>:
     810:	0f b7 05 5d 18 20 00 	movzwl 0x20185d(%rip),%eax        # 202074 <vB>
     817:	0f b7 0d 58 18 20 00 	movzwl 0x201858(%rip),%ecx        # 202076 <vA>
     81e:	48 8d 15 5b 18 20 00 	lea    0x20185b(%rip),%rdx        # 202080 <dm>
     825:	25 ff 7f 00 00       	and    $0x7fff,%eax
     82a:	66 89 0c 42          	mov    %cx,(%rdx,%rax,2)
     82e:	c3                   	retq   
     82f:	90                   	nop

0000000000000830 <At>:
     830:	0f b7 05 3d 18 20 00 	movzwl 0x20183d(%rip),%eax        # 202074 <vB>
     837:	48 8d 15 42 18 20 00 	lea    0x201842(%rip),%rdx        # 202080 <dm>
     83e:	66 25 ff 7f          	and    $0x7fff,%ax
     842:	66 89 05 17 18 20 00 	mov    %ax,0x201817(%rip)        # 202060 <vD>
     849:	25 ff 7f 00 00       	and    $0x7fff,%eax
     84e:	0f b7 04 42          	movzwl (%rdx,%rax,2),%eax
     852:	66 89 05 1b 18 20 00 	mov    %ax,0x20181b(%rip)        # 202074 <vB>
     859:	c3                   	retq   
     85a:	66 0f 1f 44 00 00    	nopw   0x0(%rax,%rax,1)

0000000000000860 <ASav>:
     860:	0f b7 15 f9 17 20 00 	movzwl 0x2017f9(%rip),%edx        # 202060 <vD>
     867:	0f b7 0d 08 18 20 00 	movzwl 0x201808(%rip),%ecx        # 202076 <vA>
     86e:	48 8d 05 0b 18 20 00 	lea    0x20180b(%rip),%rax        # 202080 <dm>
     875:	66 89 0c 50          	mov    %cx,(%rax,%rdx,2)
     879:	c3                   	retq   
     87a:	66 0f 1f 44 00 00    	nopw   0x0(%rax,%rax,1)

0000000000000880 <BSav>:
     880:	0f b7 15 d9 17 20 00 	movzwl 0x2017d9(%rip),%edx        # 202060 <vD>
     887:	0f b7 0d e6 17 20 00 	movzwl 0x2017e6(%rip),%ecx        # 202074 <vB>
     88e:	48 8d 05 eb 17 20 00 	lea    0x2017eb(%rip),%rax        # 202080 <dm>
     895:	66 89 0c 50          	mov    %cx,(%rax,%rdx,2)
     899:	c3                   	retq   
     89a:	66 0f 1f 44 00 00    	nopw   0x0(%rax,%rax,1)

00000000000008a0 <Copy>:
     8a0:	0f b7 05 cd 17 20 00 	movzwl 0x2017cd(%rip),%eax        # 202074 <vB>
     8a7:	48 8d 15 d2 17 20 00 	lea    0x2017d2(%rip),%rdx        # 202080 <dm>
     8ae:	48 89 c1             	mov    %rax,%rcx
     8b1:	66 03 05 be 17 20 00 	add    0x2017be(%rip),%ax        # 202076 <vA>
     8b8:	81 e1 ff 7f 00 00    	and    $0x7fff,%ecx
     8be:	0f b7 0c 4a          	movzwl (%rdx,%rcx,2),%ecx
     8c2:	25 ff 7f 00 00       	and    $0x7fff,%eax
     8c7:	66 89 0c 42          	mov    %cx,(%rdx,%rax,2)
     8cb:	c3                   	retq   
     8cc:	0f 1f 40 00          	nopl   0x0(%rax)

00000000000008d0 <Inc>:
     8d0:	66 83 05 9c 17 20 00 	addw   $0x1,0x20179c(%rip)        # 202074 <vB>
     8d7:	01 
     8d8:	c3                   	retq   
     8d9:	0f 1f 80 00 00 00 00 	nopl   0x0(%rax)

00000000000008e0 <Dec>:
     8e0:	66 83 2d 8c 17 20 00 	subw   $0x1,0x20178c(%rip)        # 202074 <vB>
     8e7:	01 
     8e8:	c3                   	retq   
     8e9:	0f 1f 80 00 00 00 00 	nopl   0x0(%rax)

00000000000008f0 <Imm>:
     8f0:	66 81 e7 ff 7f       	and    $0x7fff,%di
     8f5:	66 89 3d 78 17 20 00 	mov    %di,0x201778(%rip)        # 202074 <vB>
     8fc:	c3                   	retq   
     8fd:	0f 1f 00             	nopl   (%rax)

0000000000000900 <Flip>:
     900:	66 81 05 6b 17 20 00 	addw   $0x8000,0x20176b(%rip)        # 202074 <vB>
     907:	00 80 
     909:	c3                   	retq   
     90a:	66 0f 1f 44 00 00    	nopw   0x0(%rax,%rax,1)

0000000000000910 <Swap>:
     910:	0f b7 05 5f 17 20 00 	movzwl 0x20175f(%rip),%eax        # 202076 <vA>
     917:	0f b7 15 56 17 20 00 	movzwl 0x201756(%rip),%edx        # 202074 <vB>
     91e:	66 89 05 4f 17 20 00 	mov    %ax,0x20174f(%rip)        # 202074 <vB>
     925:	66 89 15 4a 17 20 00 	mov    %dx,0x20174a(%rip)        # 202076 <vA>
     92c:	c3                   	retq   
     92d:	0f 1f 00             	nopl   (%rax)

0000000000000930 <Tob>:
     930:	0f b7 05 3f 17 20 00 	movzwl 0x20173f(%rip),%eax        # 202076 <vA>
     937:	66 89 05 36 17 20 00 	mov    %ax,0x201736(%rip)        # 202074 <vB>
     93e:	c3                   	retq   
     93f:	90                   	nop

0000000000000940 <Tot>:
     940:	0f b7 05 2f 17 20 00 	movzwl 0x20172f(%rip),%eax        # 202076 <vA>
     947:	66 89 05 24 17 20 00 	mov    %ax,0x201724(%rip)        # 202072 <vT>
     94e:	c3                   	retq   
     94f:	90                   	nop

0000000000000950 <Tor>:
     950:	0f b7 05 1f 17 20 00 	movzwl 0x20171f(%rip),%eax        # 202076 <vA>
     957:	66 89 05 12 17 20 00 	mov    %ax,0x201712(%rip)        # 202070 <vR>
     95e:	c3                   	retq   
     95f:	90                   	nop

0000000000000960 <Fromb>:
     960:	0f b7 05 0d 17 20 00 	movzwl 0x20170d(%rip),%eax        # 202074 <vB>
     967:	66 89 05 08 17 20 00 	mov    %ax,0x201708(%rip)        # 202076 <vA>
     96e:	c3                   	retq   
     96f:	90                   	nop

0000000000000970 <Fromt>:
     970:	0f b7 05 fb 16 20 00 	movzwl 0x2016fb(%rip),%eax        # 202072 <vT>
     977:	66 89 05 f8 16 20 00 	mov    %ax,0x2016f8(%rip)        # 202076 <vA>
     97e:	c3                   	retq   
     97f:	90                   	nop

0000000000000980 <Fromr>:
     980:	0f b7 05 e9 16 20 00 	movzwl 0x2016e9(%rip),%eax        # 202070 <vR>
     987:	66 89 05 e8 16 20 00 	mov    %ax,0x2016e8(%rip)        # 202076 <vA>
     98e:	c3                   	retq   
     98f:	90                   	nop

0000000000000990 <Mdm>:
     990:	b8 00 80 ff ff       	mov    $0xffff8000,%eax
     995:	66 89 05 da 16 20 00 	mov    %ax,0x2016da(%rip)        # 202076 <vA>
     99c:	c3                   	retq   
     99d:	0f 1f 00             	nopl   (%rax)

00000000000009a0 <Noop>:
     9a0:	f3 c3                	repz retq 
     9a2:	0f 1f 40 00          	nopl   0x0(%rax)
     9a6:	66 2e 0f 1f 84 00 00 	nopw   %cs:0x0(%rax,%rax,1)
     9ad:	00 00 00 

00000000000009b0 <exampleProgram>:
     9b0:	41 57                	push   %r15
     9b2:	48 8d 15 77 00 00 00 	lea    0x77(%rip),%rdx        # a30 <exampleProgram+0x80>
     9b9:	41 56                	push   %r14
     9bb:	41 55                	push   %r13
     9bd:	41 54                	push   %r12
     9bf:	41 b9 00 80 ff ff    	mov    $0xffff8000,%r9d
     9c5:	55                   	push   %rbp
     9c6:	53                   	push   %rbx
     9c7:	41 b8 00 80 ff ff    	mov    $0xffff8000,%r8d
     9cd:	48 8d 1d ac 16 20 00 	lea    0x2016ac(%rip),%rbx        # 202080 <dm>
     9d4:	4c 8d 15 e5 01 00 00 	lea    0x1e5(%rip),%r10        # bc0 <exampleProgram+0x210>
     9db:	4c 8d 1d 06 02 00 00 	lea    0x206(%rip),%r11        # be8 <exampleProgram+0x238>
     9e2:	48 83 ec 08          	sub    $0x8,%rsp
     9e6:	48 8d 2d 23 02 00 00 	lea    0x223(%rip),%rbp        # c10 <exampleProgram+0x260>
     9ed:	66 44 89 0d 7f 16 20 	mov    %r9w,0x20167f(%rip)        # 202074 <vB>
     9f4:	00 
     9f5:	48 89 15 6c 16 20 00 	mov    %rdx,0x20166c(%rip)        # 202068 <vL>
     9fc:	66 44 89 05 72 16 20 	mov    %r8w,0x201672(%rip)        # 202076 <vA>
     a03:	00 
     a04:	4c 8d 0d 85 01 00 00 	lea    0x185(%rip),%r9        # b90 <exampleProgram+0x1e0>
     a0b:	4c 8d 25 2e 02 00 00 	lea    0x22e(%rip),%r12        # c40 <exampleProgram+0x290>
     a12:	4c 8d 2d 57 02 00 00 	lea    0x257(%rip),%r13        # c70 <exampleProgram+0x2c0>
     a19:	4c 8d 35 80 02 00 00 	lea    0x280(%rip),%r14        # ca0 <exampleProgram+0x2f0>
     a20:	4c 8d 3d 39 01 00 00 	lea    0x139(%rip),%r15        # b60 <exampleProgram+0x1b0>
     a27:	0f b7 05 52 96 20 00 	movzwl 0x209652(%rip),%eax        # 20a080 <dm+0x8000>
     a2e:	ff e2                	jmpq   *%rdx
     a30:	48 8d 15 99 00 00 00 	lea    0x99(%rip),%rdx        # ad0 <exampleProgram+0x120>
     a37:	31 c9                	xor    %ecx,%ecx
     a39:	31 f6                	xor    %esi,%esi
     a3b:	31 ff                	xor    %edi,%edi
     a3d:	66 89 0d 30 16 20 00 	mov    %cx,0x201630(%rip)        # 202074 <vB>
     a44:	66 89 35 2b 16 20 00 	mov    %si,0x20162b(%rip)        # 202076 <vA>
     a4b:	48 89 15 16 16 20 00 	mov    %rdx,0x201616(%rip)        # 202068 <vL>
     a52:	66 89 3d 17 16 20 00 	mov    %di,0x201617(%rip)        # 202070 <vR>
     a59:	ff e2                	jmpq   *%rdx
     a5b:	0f 1f 44 00 00       	nopl   0x0(%rax,%rax,1)
     a60:	48 8d 15 f9 00 00 00 	lea    0xf9(%rip),%rdx        # b60 <exampleProgram+0x1b0>
     a67:	4c 89 3d fa 15 20 00 	mov    %r15,0x2015fa(%rip)        # 202068 <vL>
     a6e:	31 c0                	xor    %eax,%eax
     a70:	b9 01 00 00 00       	mov    $0x1,%ecx
     a75:	be 03 80 ff ff       	mov    $0xffff8003,%esi
     a7a:	66 0f 1f 44 00 00    	nopw   0x0(%rax,%rax,1)
     a80:	48 98                	cltq   
     a82:	66 89 0d eb 15 20 00 	mov    %cx,0x2015eb(%rip)        # 202074 <vB>
     a89:	66 89 0d e6 15 20 00 	mov    %cx,0x2015e6(%rip)        # 202076 <vA>
     a90:	66 89 34 43          	mov    %si,(%rbx,%rax,2)
     a94:	0f b7 05 e5 95 20 00 	movzwl 0x2095e5(%rip),%eax        # 20a080 <dm+0x8000>
     a9b:	ff e2                	jmpq   *%rdx
     a9d:	0f 1f 00             	nopl   (%rax)
     aa0:	48 8d 05 39 02 00 00 	lea    0x239(%rip),%rax        # ce0 <exampleProgram+0x330>
     aa7:	be 00 3f 00 00       	mov    $0x3f00,%esi
     aac:	48 8d 15 2d 02 00 00 	lea    0x22d(%rip),%rdx        # ce0 <exampleProgram+0x330>
     ab3:	48 89 05 ae 15 20 00 	mov    %rax,0x2015ae(%rip)        # 202068 <vL>
     aba:	0f b7 05 b5 15 20 00 	movzwl 0x2015b5(%rip),%eax        # 202076 <vA>
     ac1:	8d 48 01             	lea    0x1(%rax),%ecx
     ac4:	25 ff 7f 00 00       	and    $0x7fff,%eax
     ac9:	eb b5                	jmp    a80 <exampleProgram+0xd0>
     acb:	0f 1f 44 00 00       	nopl   0x0(%rax,%rax,1)
     ad0:	0f b7 0d 9d 15 20 00 	movzwl 0x20159d(%rip),%ecx        # 202074 <vB>
     ad7:	44 0f b7 05 91 15 20 	movzwl 0x201591(%rip),%r8d        # 202070 <vR>
     ade:	00 
     adf:	48 8d 05 7a ff ff ff 	lea    -0x86(%rip),%rax        # a60 <exampleProgram+0xb0>
     ae6:	0f b7 35 89 15 20 00 	movzwl 0x201589(%rip),%esi        # 202076 <vA>
     aed:	48 89 05 74 15 20 00 	mov    %rax,0x201574(%rip)        # 202068 <vL>
     af4:	8d 79 01             	lea    0x1(%rcx),%edi
     af7:	48 89 c8             	mov    %rcx,%rax
     afa:	41 8d 4c 08 01       	lea    0x1(%r8,%rcx,1),%ecx
     aff:	25 ff 7f 00 00       	and    $0x7fff,%eax
     b04:	66 45 85 c0          	test   %r8w,%r8w
     b08:	66 89 34 43          	mov    %si,(%rbx,%rax,2)
     b0c:	66 89 3d 61 15 20 00 	mov    %di,0x201561(%rip)        # 202074 <vB>
     b13:	89 f8                	mov    %edi,%eax
     b15:	0f 84 45 03 00 00    	je     e60 <exampleProgram+0x4b0>
     b1b:	0f 1f 44 00 00       	nopl   0x0(%rax,%rax,1)
     b20:	48 89 c2             	mov    %rax,%rdx
     b23:	83 c0 01             	add    $0x1,%eax
     b26:	81 e2 ff 7f 00 00    	and    $0x7fff,%edx
     b2c:	66 39 c1             	cmp    %ax,%cx
     b2f:	66 89 34 53          	mov    %si,(%rbx,%rdx,2)
     b33:	75 eb                	jne    b20 <exampleProgram+0x170>
     b35:	48 8d 15 24 ff ff ff 	lea    -0xdc(%rip),%rdx        # a60 <exampleProgram+0xb0>
     b3c:	44 01 c7             	add    %r8d,%edi
     b3f:	66 c7 05 28 15 20 00 	movw   $0x0,0x201528(%rip)        # 202070 <vR>
     b46:	00 00 
     b48:	66 89 3d 25 15 20 00 	mov    %di,0x201525(%rip)        # 202074 <vB>
     b4f:	0f b7 05 2a 95 20 00 	movzwl 0x20952a(%rip),%eax        # 20a080 <dm+0x8000>
     b56:	ff e2                	jmpq   *%rdx
     b58:	0f 1f 84 00 00 00 00 	nopl   0x0(%rax,%rax,1)
     b5f:	00 
     b60:	0f b7 05 0f 15 20 00 	movzwl 0x20150f(%rip),%eax        # 202076 <vA>
     b67:	4c 89 35 fa 14 20 00 	mov    %r14,0x2014fa(%rip)        # 202068 <vL>
     b6e:	be 00 01 00 00       	mov    $0x100,%esi
     b73:	48 8d 15 26 01 00 00 	lea    0x126(%rip),%rdx        # ca0 <exampleProgram+0x2f0>
     b7a:	8d 48 01             	lea    0x1(%rax),%ecx
     b7d:	25 ff 7f 00 00       	and    $0x7fff,%eax
     b82:	e9 f9 fe ff ff       	jmpq   a80 <exampleProgram+0xd0>
     b87:	66 0f 1f 84 00 00 00 	nopw   0x0(%rax,%rax,1)
     b8e:	00 00 
     b90:	48 8d 05 09 ff ff ff 	lea    -0xf7(%rip),%rax        # aa0 <exampleProgram+0xf0>
     b97:	be 07 50 00 00       	mov    $0x5007,%esi
     b9c:	48 8d 15 fd fe ff ff 	lea    -0x103(%rip),%rdx        # aa0 <exampleProgram+0xf0>
     ba3:	48 89 05 be 14 20 00 	mov    %rax,0x2014be(%rip)        # 202068 <vL>
     baa:	0f b7 05 c5 14 20 00 	movzwl 0x2014c5(%rip),%eax        # 202076 <vA>
     bb1:	8d 48 01             	lea    0x1(%rax),%ecx
     bb4:	25 ff 7f 00 00       	and    $0x7fff,%eax
     bb9:	e9 c2 fe ff ff       	jmpq   a80 <exampleProgram+0xd0>
     bbe:	66 90                	xchg   %ax,%ax
     bc0:	0f b7 05 af 14 20 00 	movzwl 0x2014af(%rip),%eax        # 202076 <vA>
     bc7:	4c 89 0d 9a 14 20 00 	mov    %r9,0x20149a(%rip)        # 202068 <vL>
     bce:	31 f6                	xor    %esi,%esi
     bd0:	48 8d 15 b9 ff ff ff 	lea    -0x47(%rip),%rdx        # b90 <exampleProgram+0x1e0>
     bd7:	8d 48 01             	lea    0x1(%rax),%ecx
     bda:	25 ff 7f 00 00       	and    $0x7fff,%eax
     bdf:	e9 9c fe ff ff       	jmpq   a80 <exampleProgram+0xd0>
     be4:	0f 1f 40 00          	nopl   0x0(%rax)
     be8:	0f b7 05 87 14 20 00 	movzwl 0x201487(%rip),%eax        # 202076 <vA>
     bef:	4c 89 15 72 14 20 00 	mov    %r10,0x201472(%rip)        # 202068 <vL>
     bf6:	be 00 31 00 00       	mov    $0x3100,%esi
     bfb:	48 8d 15 be ff ff ff 	lea    -0x42(%rip),%rdx        # bc0 <exampleProgram+0x210>
     c02:	8d 48 01             	lea    0x1(%rax),%ecx
     c05:	25 ff 7f 00 00       	and    $0x7fff,%eax
     c0a:	e9 71 fe ff ff       	jmpq   a80 <exampleProgram+0xd0>
     c0f:	90                   	nop
     c10:	0f b7 05 5f 14 20 00 	movzwl 0x20145f(%rip),%eax        # 202076 <vA>
     c17:	4c 89 1d 4a 14 20 00 	mov    %r11,0x20144a(%rip)        # 202068 <vL>
     c1e:	be 00 33 00 00       	mov    $0x3300,%esi
     c23:	48 8d 15 be ff ff ff 	lea    -0x42(%rip),%rdx        # be8 <exampleProgram+0x238>
     c2a:	8d 48 01             	lea    0x1(%rax),%ecx
     c2d:	25 ff 7f 00 00       	and    $0x7fff,%eax
     c32:	e9 49 fe ff ff       	jmpq   a80 <exampleProgram+0xd0>
     c37:	66 0f 1f 84 00 00 00 	nopw   0x0(%rax,%rax,1)
     c3e:	00 00 
     c40:	0f b7 05 2f 14 20 00 	movzwl 0x20142f(%rip),%eax        # 202076 <vA>
     c47:	48 89 2d 1a 14 20 00 	mov    %rbp,0x20141a(%rip)        # 202068 <vL>
     c4e:	be ff ff ff ff       	mov    $0xffffffff,%esi
     c53:	48 8d 15 b6 ff ff ff 	lea    -0x4a(%rip),%rdx        # c10 <exampleProgram+0x260>
     c5a:	8d 48 01             	lea    0x1(%rax),%ecx
     c5d:	25 ff 7f 00 00       	and    $0x7fff,%eax
     c62:	e9 19 fe ff ff       	jmpq   a80 <exampleProgram+0xd0>
     c67:	66 0f 1f 84 00 00 00 	nopw   0x0(%rax,%rax,1)
     c6e:	00 00 
     c70:	0f b7 05 ff 13 20 00 	movzwl 0x2013ff(%rip),%eax        # 202076 <vA>
     c77:	4c 89 25 ea 13 20 00 	mov    %r12,0x2013ea(%rip)        # 202068 <vL>
     c7e:	be 00 01 00 00       	mov    $0x100,%esi
     c83:	48 8d 15 b6 ff ff ff 	lea    -0x4a(%rip),%rdx        # c40 <exampleProgram+0x290>
     c8a:	8d 48 01             	lea    0x1(%rax),%ecx
     c8d:	25 ff 7f 00 00       	and    $0x7fff,%eax
     c92:	e9 e9 fd ff ff       	jmpq   a80 <exampleProgram+0xd0>
     c97:	66 0f 1f 84 00 00 00 	nopw   0x0(%rax,%rax,1)
     c9e:	00 00 
     ca0:	0f b7 05 cf 13 20 00 	movzwl 0x2013cf(%rip),%eax        # 202076 <vA>
     ca7:	4c 89 2d ba 13 20 00 	mov    %r13,0x2013ba(%rip)        # 202068 <vL>
     cae:	be 05 80 ff ff       	mov    $0xffff8005,%esi
     cb3:	48 8d 15 b6 ff ff ff 	lea    -0x4a(%rip),%rdx        # c70 <exampleProgram+0x2c0>
     cba:	8d 48 01             	lea    0x1(%rax),%ecx
     cbd:	25 ff 7f 00 00       	and    $0x7fff,%eax
     cc2:	e9 b9 fd ff ff       	jmpq   a80 <exampleProgram+0xd0>
     cc7:	0f b7 0d bc 93 20 00 	movzwl 0x2093bc(%rip),%ecx        # 20a08a <dm+0x800a>
     cce:	66 85 c9             	test   %cx,%cx
     cd1:	74 0d                	je     ce0 <exampleProgram+0x330>
     cd3:	83 e9 01             	sub    $0x1,%ecx
     cd6:	0f b6 c2             	movzbl %dl,%eax
     cd9:	66 89 0d aa 93 20 00 	mov    %cx,0x2093aa(%rip)        # 20a08a <dm+0x800a>
     ce0:	8d 48 01             	lea    0x1(%rax),%ecx
     ce3:	41 b8 00 40 00 00    	mov    $0x4000,%r8d
     ce9:	66 44 89 05 6f 13 20 	mov    %r8w,0x20136f(%rip)        # 202060 <vD>
     cf0:	00 
     cf1:	66 81 e1 ff 3f       	and    $0x3fff,%cx
     cf6:	89 c8                	mov    %ecx,%eax
     cf8:	66 89 0d 81 93 20 00 	mov    %cx,0x209381(%rip)        # 20a080 <dm+0x8000>
     cff:	8d 50 ff             	lea    -0x1(%rax),%edx
     d02:	81 e2 ff 7f 00 00    	and    $0x7fff,%edx
     d08:	0f b7 14 53          	movzwl (%rbx,%rdx,2),%edx
     d0c:	66 85 d2             	test   %dx,%dx
     d0f:	66 89 15 5c 13 20 00 	mov    %dx,0x20135c(%rip)        # 202072 <vT>
     d16:	0f 88 dc 01 00 00    	js     ef8 <exampleProgram+0x548>
     d1c:	89 d6                	mov    %edx,%esi
     d1e:	66 81 e6 00 7f       	and    $0x7f00,%si
     d23:	f6 c6 40             	test   $0x40,%dh
     d26:	0f 85 44 01 00 00    	jne    e70 <exampleProgram+0x4c0>
     d2c:	66 85 f6             	test   %si,%si
     d2f:	74 af                	je     ce0 <exampleProgram+0x330>
     d31:	66 81 fe 00 01       	cmp    $0x100,%si
     d36:	0f 84 e4 01 00 00    	je     f20 <exampleProgram+0x570>
     d3c:	66 81 fe 00 02       	cmp    $0x200,%si
     d41:	0f 84 ec 01 00 00    	je     f33 <exampleProgram+0x583>
     d47:	66 81 fe 00 04       	cmp    $0x400,%si
     d4c:	0f 84 1e 02 00 00    	je     f70 <exampleProgram+0x5c0>
     d52:	66 81 fe 00 03       	cmp    $0x300,%si
     d57:	0f 84 f9 01 00 00    	je     f56 <exampleProgram+0x5a6>
     d5d:	66 81 fe 00 05       	cmp    $0x500,%si
     d62:	0f 84 22 02 00 00    	je     f8a <exampleProgram+0x5da>
     d68:	66 81 fe 00 08       	cmp    $0x800,%si
     d6d:	0f 84 82 02 00 00    	je     ff5 <exampleProgram+0x645>
     d73:	66 81 fe 00 09       	cmp    $0x900,%si
     d78:	0f 84 93 02 00 00    	je     1011 <exampleProgram+0x661>
     d7e:	66 81 fe 00 10       	cmp    $0x1000,%si
     d83:	0f 84 a4 02 00 00    	je     102d <exampleProgram+0x67d>
     d89:	66 81 fe 00 11       	cmp    $0x1100,%si
     d8e:	0f 84 b6 02 00 00    	je     104a <exampleProgram+0x69a>
     d94:	66 81 fe 00 12       	cmp    $0x1200,%si
     d99:	0f 84 ce 02 00 00    	je     106d <exampleProgram+0x6bd>
     d9f:	66 81 fe 00 13       	cmp    $0x1300,%si
     da4:	0f 84 03 03 00 00    	je     10ad <exampleProgram+0x6fd>
     daa:	66 81 fe 00 14       	cmp    $0x1400,%si
     daf:	0f 84 d5 02 00 00    	je     108a <exampleProgram+0x6da>
     db5:	66 81 fe 00 15       	cmp    $0x1500,%si
     dba:	0f 84 c3 03 00 00    	je     1183 <exampleProgram+0x7d3>
     dc0:	66 81 fe 00 20       	cmp    $0x2000,%si
     dc5:	0f 84 ab 03 00 00    	je     1176 <exampleProgram+0x7c6>
     dcb:	66 81 fe 00 21       	cmp    $0x2100,%si
     dd0:	0f 84 93 03 00 00    	je     1169 <exampleProgram+0x7b9>
     dd6:	66 81 fe 00 23       	cmp    $0x2300,%si
     ddb:	0f 84 75 03 00 00    	je     1156 <exampleProgram+0x7a6>
     de1:	66 81 fe 00 30       	cmp    $0x3000,%si
     de6:	0f 84 6a 03 00 00    	je     1156 <exampleProgram+0x7a6>
     dec:	66 81 fe 00 31       	cmp    $0x3100,%si
     df1:	0f 84 4c 03 00 00    	je     1143 <exampleProgram+0x793>
     df7:	66 81 fe 00 32       	cmp    $0x3200,%si
     dfc:	0f 84 2e 03 00 00    	je     1130 <exampleProgram+0x780>
     e02:	66 81 fe 00 33       	cmp    $0x3300,%si
     e07:	0f 84 10 03 00 00    	je     111d <exampleProgram+0x76d>
     e0d:	66 81 fe 00 34       	cmp    $0x3400,%si
     e12:	0f 84 f2 02 00 00    	je     110a <exampleProgram+0x75a>
     e18:	66 81 fe 00 35       	cmp    $0x3500,%si
     e1d:	0f 84 d4 02 00 00    	je     10f7 <exampleProgram+0x747>
     e23:	66 81 fe 00 36       	cmp    $0x3600,%si
     e28:	0f 84 bb 02 00 00    	je     10e9 <exampleProgram+0x739>
     e2e:	66 81 fe 00 37       	cmp    $0x3700,%si
     e33:	0f 84 a4 02 00 00    	je     10dd <exampleProgram+0x72d>
     e39:	66 81 fe 00 3f       	cmp    $0x3f00,%si
     e3e:	75 30                	jne    e70 <exampleProgram+0x4c0>
     e40:	0f b6 05 3b 92 20 00 	movzbl 0x20923b(%rip),%eax        # 20a082 <dm+0x8002>
     e47:	66 c7 05 24 12 20 00 	movw   $0xff,0x201224(%rip)        # 202074 <vB>
     e4e:	ff 00 
     e50:	66 89 05 1f 12 20 00 	mov    %ax,0x20121f(%rip)        # 202076 <vA>
     e57:	e9 86 00 00 00       	jmpq   ee2 <exampleProgram+0x532>
     e5c:	0f 1f 40 00          	nopl   0x0(%rax)
     e60:	48 8d 15 f9 fb ff ff 	lea    -0x407(%rip),%rdx        # a60 <exampleProgram+0xb0>
     e67:	0f b7 05 12 92 20 00 	movzwl 0x209212(%rip),%eax        # 20a080 <dm+0x8000>
     e6e:	ff e2                	jmpq   *%rdx
     e70:	66 81 fe 00 41       	cmp    $0x4100,%si
     e75:	66 89 35 fa 11 20 00 	mov    %si,0x2011fa(%rip)        # 202076 <vA>
     e7c:	0f 84 87 00 00 00    	je     f09 <exampleProgram+0x559>
     e82:	66 81 fe 00 46       	cmp    $0x4600,%si
     e87:	0f 84 8b 00 00 00    	je     f18 <exampleProgram+0x568>
     e8d:	66 81 fe 00 50       	cmp    $0x5000,%si
     e92:	0f 84 2f fe ff ff    	je     cc7 <exampleProgram+0x317>
     e98:	66 81 fe 00 61       	cmp    $0x6100,%si
     e9d:	0f 84 aa 00 00 00    	je     f4d <exampleProgram+0x59d>
     ea3:	bf 00 71 00 00       	mov    $0x7100,%edi
     ea8:	66 81 fe 00 71       	cmp    $0x7100,%si
     ead:	66 89 3d c0 11 20 00 	mov    %di,0x2011c0(%rip)        # 202074 <vB>
     eb4:	0f 84 1c 01 00 00    	je     fd6 <exampleProgram+0x626>
     eba:	66 81 fe 00 72       	cmp    $0x7200,%si
     ebf:	0f 84 df 00 00 00    	je     fa4 <exampleProgram+0x5f4>
     ec5:	ba 02 00 00 00       	mov    $0x2,%edx
     eca:	b9 02 00 00 00       	mov    $0x2,%ecx
     ecf:	b8 02 00 00 00       	mov    $0x2,%eax
     ed4:	66 89 15 99 11 20 00 	mov    %dx,0x201199(%rip)        # 202074 <vB>
     edb:	66 89 0d 94 11 20 00 	mov    %cx,0x201194(%rip)        # 202076 <vA>
     ee2:	48 83 c4 08          	add    $0x8,%rsp
     ee6:	5b                   	pop    %rbx
     ee7:	5d                   	pop    %rbp
     ee8:	41 5c                	pop    %r12
     eea:	41 5d                	pop    %r13
     eec:	41 5e                	pop    %r14
     eee:	41 5f                	pop    %r15
     ef0:	c3                   	retq   
     ef1:	0f 1f 80 00 00 00 00 	nopl   0x0(%rax)
     ef8:	66 81 c2 00 80       	add    $0x8000,%dx
     efd:	66 89 15 80 91 20 00 	mov    %dx,0x209180(%rip)        # 20a084 <dm+0x8004>
     f04:	e9 d7 fd ff ff       	jmpq   ce0 <exampleProgram+0x330>
     f09:	66 81 3d 70 91 20 00 	cmpw   $0x4001,0x209170(%rip)        # 20a082 <dm+0x8002>
     f10:	01 40 
     f12:	0f 85 c8 fd ff ff    	jne    ce0 <exampleProgram+0x330>
     f18:	0f b6 c2             	movzbl %dl,%eax
     f1b:	e9 c0 fd ff ff       	jmpq   ce0 <exampleProgram+0x330>
     f20:	0f b7 15 5d 91 20 00 	movzwl 0x20915d(%rip),%edx        # 20a084 <dm+0x8004>
     f27:	66 01 15 54 91 20 00 	add    %dx,0x209154(%rip)        # 20a082 <dm+0x8002>
     f2e:	e9 ad fd ff ff       	jmpq   ce0 <exampleProgram+0x330>
     f33:	0f b7 15 48 91 20 00 	movzwl 0x209148(%rip),%edx        # 20a082 <dm+0x8002>
     f3a:	66 2b 15 43 91 20 00 	sub    0x209143(%rip),%dx        # 20a084 <dm+0x8004>
     f41:	66 89 15 3a 91 20 00 	mov    %dx,0x20913a(%rip)        # 20a082 <dm+0x8002>
     f48:	e9 93 fd ff ff       	jmpq   ce0 <exampleProgram+0x330>
     f4d:	66 89 0d 32 91 20 00 	mov    %cx,0x209132(%rip)        # 20a086 <dm+0x8006>
     f54:	eb c2                	jmp    f18 <exampleProgram+0x568>
     f56:	0f b7 15 25 91 20 00 	movzwl 0x209125(%rip),%edx        # 20a082 <dm+0x8002>
     f5d:	66 0b 15 20 91 20 00 	or     0x209120(%rip),%dx        # 20a084 <dm+0x8004>
     f64:	66 89 15 17 91 20 00 	mov    %dx,0x209117(%rip)        # 20a082 <dm+0x8002>
     f6b:	e9 70 fd ff ff       	jmpq   ce0 <exampleProgram+0x330>
     f70:	0f b7 15 0b 91 20 00 	movzwl 0x20910b(%rip),%edx        # 20a082 <dm+0x8002>
     f77:	66 23 15 06 91 20 00 	and    0x209106(%rip),%dx        # 20a084 <dm+0x8004>
     f7e:	66 89 15 fd 90 20 00 	mov    %dx,0x2090fd(%rip)        # 20a082 <dm+0x8002>
     f85:	e9 56 fd ff ff       	jmpq   ce0 <exampleProgram+0x330>
     f8a:	0f b7 15 f1 90 20 00 	movzwl 0x2090f1(%rip),%edx        # 20a082 <dm+0x8002>
     f91:	66 33 15 ec 90 20 00 	xor    0x2090ec(%rip),%dx        # 20a084 <dm+0x8004>
     f98:	66 89 15 e3 90 20 00 	mov    %dx,0x2090e3(%rip)        # 20a082 <dm+0x8002>
     f9f:	e9 3c fd ff ff       	jmpq   ce0 <exampleProgram+0x330>
     fa4:	0f b7 3d d7 90 20 00 	movzwl 0x2090d7(%rip),%edi        # 20a082 <dm+0x8002>
     fab:	48 8b 35 8e 10 20 00 	mov    0x20108e(%rip),%rsi        # 202040 <stdout@@GLIBC_2.2.5>
     fb2:	b8 01 40 00 00       	mov    $0x4001,%eax
     fb7:	66 89 05 b6 10 20 00 	mov    %ax,0x2010b6(%rip)        # 202074 <vB>
     fbe:	66 89 3d b1 10 20 00 	mov    %di,0x2010b1(%rip)        # 202076 <vA>
     fc5:	e8 06 f6 ff ff       	callq  5d0 <_IO_putc@plt>
     fca:	0f b7 05 af 90 20 00 	movzwl 0x2090af(%rip),%eax        # 20a080 <dm+0x8000>
     fd1:	e9 0a fd ff ff       	jmpq   ce0 <exampleProgram+0x330>
     fd6:	48 8b 3d 73 10 20 00 	mov    0x201073(%rip),%rdi        # 202050 <stdin@@GLIBC_2.2.5>
     fdd:	e8 fe f5 ff ff       	callq  5e0 <_IO_getc@plt>
     fe2:	66 89 05 99 90 20 00 	mov    %ax,0x209099(%rip)        # 20a082 <dm+0x8002>
     fe9:	0f b7 05 90 90 20 00 	movzwl 0x209090(%rip),%eax        # 20a080 <dm+0x8000>
     ff0:	e9 eb fc ff ff       	jmpq   ce0 <exampleProgram+0x330>
     ff5:	0f b7 15 86 90 20 00 	movzwl 0x209086(%rip),%edx        # 20a082 <dm+0x8002>
     ffc:	0f b7 0d 81 90 20 00 	movzwl 0x209081(%rip),%ecx        # 20a084 <dm+0x8004>
    1003:	d3 e2                	shl    %cl,%edx
    1005:	66 89 15 76 90 20 00 	mov    %dx,0x209076(%rip)        # 20a082 <dm+0x8002>
    100c:	e9 cf fc ff ff       	jmpq   ce0 <exampleProgram+0x330>
    1011:	0f b7 15 6a 90 20 00 	movzwl 0x20906a(%rip),%edx        # 20a082 <dm+0x8002>
    1018:	0f b7 0d 65 90 20 00 	movzwl 0x209065(%rip),%ecx        # 20a084 <dm+0x8004>
    101f:	d3 fa                	sar    %cl,%edx
    1021:	66 89 15 5a 90 20 00 	mov    %dx,0x20905a(%rip)        # 20a082 <dm+0x8002>
    1028:	e9 b3 fc ff ff       	jmpq   ce0 <exampleProgram+0x330>
    102d:	0f b7 15 50 90 20 00 	movzwl 0x209050(%rip),%edx        # 20a084 <dm+0x8004>
    1034:	81 e2 ff 3f 00 00    	and    $0x3fff,%edx
    103a:	0f b7 14 53          	movzwl (%rbx,%rdx,2),%edx
    103e:	66 89 15 3d 90 20 00 	mov    %dx,0x20903d(%rip)        # 20a082 <dm+0x8002>
    1045:	e9 96 fc ff ff       	jmpq   ce0 <exampleProgram+0x330>
    104a:	0f b7 05 33 90 20 00 	movzwl 0x209033(%rip),%eax        # 20a084 <dm+0x8004>
    1051:	0f b7 15 2a 90 20 00 	movzwl 0x20902a(%rip),%edx        # 20a082 <dm+0x8002>
    1058:	25 ff 3f 00 00       	and    $0x3fff,%eax
    105d:	66 89 14 43          	mov    %dx,(%rbx,%rax,2)
    1061:	0f b7 05 18 90 20 00 	movzwl 0x209018(%rip),%eax        # 20a080 <dm+0x8000>
    1068:	e9 73 fc ff ff       	jmpq   ce0 <exampleProgram+0x330>
    106d:	0f b7 15 10 90 20 00 	movzwl 0x209010(%rip),%edx        # 20a084 <dm+0x8004>
    1074:	81 e2 ff 3f 00 00    	and    $0x3fff,%edx
    107a:	0f b7 14 53          	movzwl (%rbx,%rdx,2),%edx
    107e:	66 89 15 ff 8f 20 00 	mov    %dx,0x208fff(%rip)        # 20a084 <dm+0x8004>
    1085:	e9 56 fc ff ff       	jmpq   ce0 <exampleProgram+0x330>
    108a:	0f b7 05 fb 8f 20 00 	movzwl 0x208ffb(%rip),%eax        # 20a08c <dm+0x800c>
    1091:	0f b7 15 ea 8f 20 00 	movzwl 0x208fea(%rip),%edx        # 20a082 <dm+0x8002>
    1098:	25 ff 7f 00 00       	and    $0x7fff,%eax
    109d:	66 89 14 43          	mov    %dx,(%rbx,%rax,2)
    10a1:	0f b7 05 d8 8f 20 00 	movzwl 0x208fd8(%rip),%eax        # 20a080 <dm+0x8000>
    10a8:	e9 33 fc ff ff       	jmpq   ce0 <exampleProgram+0x330>
    10ad:	0f b7 05 d0 8f 20 00 	movzwl 0x208fd0(%rip),%eax        # 20a084 <dm+0x8004>
    10b4:	48 89 c2             	mov    %rax,%rdx
    10b7:	66 03 05 c4 8f 20 00 	add    0x208fc4(%rip),%ax        # 20a082 <dm+0x8002>
    10be:	81 e2 ff 3f 00 00    	and    $0x3fff,%edx
    10c4:	0f b7 14 53          	movzwl (%rbx,%rdx,2),%edx
    10c8:	25 ff 3f 00 00       	and    $0x3fff,%eax
    10cd:	66 89 14 43          	mov    %dx,(%rbx,%rax,2)
    10d1:	0f b7 05 a8 8f 20 00 	movzwl 0x208fa8(%rip),%eax        # 20a080 <dm+0x8000>
    10d8:	e9 03 fc ff ff       	jmpq   ce0 <exampleProgram+0x330>
    10dd:	0f b7 05 a2 8f 20 00 	movzwl 0x208fa2(%rip),%eax        # 20a086 <dm+0x8006>
    10e4:	e9 f7 fb ff ff       	jmpq   ce0 <exampleProgram+0x330>
    10e9:	66 c7 05 90 8f 20 00 	movw   $0x4000,0x208f90(%rip)        # 20a082 <dm+0x8002>
    10f0:	00 40 
    10f2:	e9 e9 fb ff ff       	jmpq   ce0 <exampleProgram+0x330>
    10f7:	0f b7 15 8a 8f 20 00 	movzwl 0x208f8a(%rip),%edx        # 20a088 <dm+0x8008>
    10fe:	66 89 15 7d 8f 20 00 	mov    %dx,0x208f7d(%rip)        # 20a082 <dm+0x8002>
    1105:	e9 d6 fb ff ff       	jmpq   ce0 <exampleProgram+0x330>
    110a:	0f b7 15 79 8f 20 00 	movzwl 0x208f79(%rip),%edx        # 20a08a <dm+0x800a>
    1111:	66 89 15 6a 8f 20 00 	mov    %dx,0x208f6a(%rip)        # 20a082 <dm+0x8002>
    1118:	e9 c3 fb ff ff       	jmpq   ce0 <exampleProgram+0x330>
    111d:	0f b7 15 60 8f 20 00 	movzwl 0x208f60(%rip),%edx        # 20a084 <dm+0x8004>
    1124:	66 89 15 57 8f 20 00 	mov    %dx,0x208f57(%rip)        # 20a082 <dm+0x8002>
    112b:	e9 b0 fb ff ff       	jmpq   ce0 <exampleProgram+0x330>
    1130:	0f b7 15 4b 8f 20 00 	movzwl 0x208f4b(%rip),%edx        # 20a082 <dm+0x8002>
    1137:	66 89 15 4a 8f 20 00 	mov    %dx,0x208f4a(%rip)        # 20a088 <dm+0x8008>
    113e:	e9 9d fb ff ff       	jmpq   ce0 <exampleProgram+0x330>
    1143:	0f b7 15 38 8f 20 00 	movzwl 0x208f38(%rip),%edx        # 20a082 <dm+0x8002>
    114a:	66 89 15 39 8f 20 00 	mov    %dx,0x208f39(%rip)        # 20a08a <dm+0x800a>
    1151:	e9 8a fb ff ff       	jmpq   ce0 <exampleProgram+0x330>
    1156:	0f b7 15 25 8f 20 00 	movzwl 0x208f25(%rip),%edx        # 20a082 <dm+0x8002>
    115d:	66 89 15 20 8f 20 00 	mov    %dx,0x208f20(%rip)        # 20a084 <dm+0x8004>
    1164:	e9 77 fb ff ff       	jmpq   ce0 <exampleProgram+0x330>
    1169:	66 83 2d 13 8f 20 00 	subw   $0x1,0x208f13(%rip)        # 20a084 <dm+0x8004>
    1170:	01 
    1171:	e9 6a fb ff ff       	jmpq   ce0 <exampleProgram+0x330>
    1176:	66 83 05 06 8f 20 00 	addw   $0x1,0x208f06(%rip)        # 20a084 <dm+0x8004>
    117d:	01 
    117e:	e9 5d fb ff ff       	jmpq   ce0 <exampleProgram+0x330>
    1183:	0f b7 05 02 8f 20 00 	movzwl 0x208f02(%rip),%eax        # 20a08c <dm+0x800c>
    118a:	0f b7 15 f3 8e 20 00 	movzwl 0x208ef3(%rip),%edx        # 20a084 <dm+0x8004>
    1191:	25 ff 7f 00 00       	and    $0x7fff,%eax
    1196:	66 89 14 43          	mov    %dx,(%rbx,%rax,2)
    119a:	0f b7 05 df 8e 20 00 	movzwl 0x208edf(%rip),%eax        # 20a080 <dm+0x8000>
    11a1:	e9 3a fb ff ff       	jmpq   ce0 <exampleProgram+0x330>
    11a6:	66 2e 0f 1f 84 00 00 	nopw   %cs:0x0(%rax,%rax,1)
    11ad:	00 00 00 

00000000000011b0 <__libc_csu_init>:
    11b0:	41 57                	push   %r15
    11b2:	41 56                	push   %r14
    11b4:	41 89 ff             	mov    %edi,%r15d
    11b7:	41 55                	push   %r13
    11b9:	41 54                	push   %r12
    11bb:	4c 8d 25 26 0c 20 00 	lea    0x200c26(%rip),%r12        # 201de8 <__frame_dummy_init_array_entry>
    11c2:	55                   	push   %rbp
    11c3:	48 8d 2d 26 0c 20 00 	lea    0x200c26(%rip),%rbp        # 201df0 <__init_array_end>
    11ca:	53                   	push   %rbx
    11cb:	49 89 f6             	mov    %rsi,%r14
    11ce:	49 89 d5             	mov    %rdx,%r13
    11d1:	4c 29 e5             	sub    %r12,%rbp
    11d4:	48 83 ec 08          	sub    $0x8,%rsp
    11d8:	48 c1 fd 03          	sar    $0x3,%rbp
    11dc:	e8 bf f3 ff ff       	callq  5a0 <_init>
    11e1:	48 85 ed             	test   %rbp,%rbp
    11e4:	74 20                	je     1206 <__libc_csu_init+0x56>
    11e6:	31 db                	xor    %ebx,%ebx
    11e8:	0f 1f 84 00 00 00 00 	nopl   0x0(%rax,%rax,1)
    11ef:	00 
    11f0:	4c 89 ea             	mov    %r13,%rdx
    11f3:	4c 89 f6             	mov    %r14,%rsi
    11f6:	44 89 ff             	mov    %r15d,%edi
    11f9:	41 ff 14 dc          	callq  *(%r12,%rbx,8)
    11fd:	48 83 c3 01          	add    $0x1,%rbx
    1201:	48 39 dd             	cmp    %rbx,%rbp
    1204:	75 ea                	jne    11f0 <__libc_csu_init+0x40>
    1206:	48 83 c4 08          	add    $0x8,%rsp
    120a:	5b                   	pop    %rbx
    120b:	5d                   	pop    %rbp
    120c:	41 5c                	pop    %r12
    120e:	41 5d                	pop    %r13
    1210:	41 5e                	pop    %r14
    1212:	41 5f                	pop    %r15
    1214:	c3                   	retq   
    1215:	90                   	nop
    1216:	66 2e 0f 1f 84 00 00 	nopw   %cs:0x0(%rax,%rax,1)
    121d:	00 00 00 

0000000000001220 <__libc_csu_fini>:
    1220:	f3 c3                	repz retq 

Disassembly of section .fini:

0000000000001224 <_fini>:
    1224:	48 83 ec 08          	sub    $0x8,%rsp
    1228:	48 83 c4 08          	add    $0x8,%rsp
    122c:	c3                   	retq   
