
qmisc:     file format elf64-x86-64


Disassembly of section .init:

00000000000005a0 <_init>:
 5a0:	48 83 ec 08          	sub    $0x8,%rsp
 5a4:	48 8b 05 3d 1a 20 00 	mov    0x201a3d(%rip),%rax        # 201fe8 <__gmon_start__>
 5ab:	48 85 c0             	test   %rax,%rax
 5ae:	74 02                	je     5b2 <_init+0x12>
 5b0:	ff d0                	callq  *%rax
 5b2:	48 83 c4 08          	add    $0x8,%rsp
 5b6:	c3                   	retq   

Disassembly of section .plt:

00000000000005c0 <.plt>:
 5c0:	ff 35 42 1a 20 00    	pushq  0x201a42(%rip)        # 202008 <_GLOBAL_OFFSET_TABLE_+0x8>
 5c6:	ff 25 44 1a 20 00    	jmpq   *0x201a44(%rip)        # 202010 <_GLOBAL_OFFSET_TABLE_+0x10>
 5cc:	0f 1f 40 00          	nopl   0x0(%rax)

00000000000005d0 <_IO_putc@plt>:
 5d0:	ff 25 42 1a 20 00    	jmpq   *0x201a42(%rip)        # 202018 <_IO_putc@GLIBC_2.2.5>
 5d6:	68 00 00 00 00       	pushq  $0x0
 5db:	e9 e0 ff ff ff       	jmpq   5c0 <.plt>

00000000000005e0 <_IO_getc@plt>:
 5e0:	ff 25 3a 1a 20 00    	jmpq   *0x201a3a(%rip)        # 202020 <_IO_getc@GLIBC_2.2.5>
 5e6:	68 01 00 00 00       	pushq  $0x1
 5eb:	e9 d0 ff ff ff       	jmpq   5c0 <.plt>

Disassembly of section .plt.got:

00000000000005f0 <__cxa_finalize@plt>:
 5f0:	ff 25 02 1a 20 00    	jmpq   *0x201a02(%rip)        # 201ff8 <__cxa_finalize@GLIBC_2.2.5>
 5f6:	66 90                	xchg   %ax,%ax

Disassembly of section .text:

0000000000000600 <main>:
 600:	66 0f 6f 05 58 1a 20 	movdqa 0x201a58(%rip),%xmm0        # 202060 <program>
 607:	00 
 608:	48 8b 05 71 1a 20 00 	mov    0x201a71(%rip),%rax        # 202080 <program+0x20>
 60f:	53                   	push   %rbx
 610:	48 8d 1d c9 1a 20 00 	lea    0x201ac9(%rip),%rbx        # 2020e0 <dm>
 617:	0f 29 05 c2 1a 20 00 	movaps %xmm0,0x201ac2(%rip)        # 2020e0 <dm>
 61e:	66 0f 6f 05 4a 1a 20 	movdqa 0x201a4a(%rip),%xmm0        # 202070 <program+0x10>
 625:	00 
 626:	48 89 05 d3 1a 20 00 	mov    %rax,0x201ad3(%rip)        # 202100 <dm+0x20>
 62d:	8b 05 8d 1a 20 00    	mov    0x201a8d(%rip),%eax        # 2020c0 <vZ>
 633:	0f 29 05 b6 1a 20 00 	movaps %xmm0,0x201ab6(%rip)        # 2020f0 <dm+0x10>
 63a:	66 0f 1f 44 00 00    	nopw   0x0(%rax,%rax,1)
 640:	89 c2                	mov    %eax,%edx
 642:	83 c0 01             	add    $0x1,%eax
 645:	0f b7 c0             	movzwl %ax,%eax
 648:	8b 0c 93             	mov    (%rbx,%rdx,4),%ecx
 64b:	89 05 6f 1a 20 00    	mov    %eax,0x201a6f(%rip)        # 2020c0 <vZ>
 651:	85 c9                	test   %ecx,%ecx
 653:	0f 88 d7 00 00 00    	js     730 <main+0x130>
 659:	89 ca                	mov    %ecx,%edx
 65b:	81 e2 00 00 00 ff    	and    $0xff000000,%edx
 661:	81 fa 00 00 00 13    	cmp    $0x13000000,%edx
 667:	0f 84 ee 03 00 00    	je     a5b <main+0x45b>
 66d:	77 61                	ja     6d0 <main+0xd0>
 66f:	81 fa 00 00 00 09    	cmp    $0x9000000,%edx
 675:	0f 84 56 04 00 00    	je     ad1 <main+0x4d1>
 67b:	0f 87 1f 01 00 00    	ja     7a0 <main+0x1a0>
 681:	81 fa 00 00 00 04    	cmp    $0x4000000,%edx
 687:	0f 84 ab 03 00 00    	je     a38 <main+0x438>
 68d:	0f 87 f5 01 00 00    	ja     888 <main+0x288>
 693:	81 fa 00 00 00 01    	cmp    $0x1000000,%edx
 699:	0f 84 21 04 00 00    	je     ac0 <main+0x4c0>
 69f:	0f 86 18 03 00 00    	jbe    9bd <main+0x3bd>
 6a5:	81 fa 00 00 00 02    	cmp    $0x2000000,%edx
 6ab:	0f 84 5f 03 00 00    	je     a10 <main+0x410>
 6b1:	81 fa 00 00 00 03    	cmp    $0x3000000,%edx
 6b7:	0f 85 08 03 00 00    	jne    9c5 <main+0x3c5>
 6bd:	8b 15 15 1a 20 00    	mov    0x201a15(%rip),%edx        # 2020d8 <vB>
 6c3:	09 15 13 1a 20 00    	or     %edx,0x201a13(%rip)        # 2020dc <vA>
 6c9:	e9 72 ff ff ff       	jmpq   640 <main+0x40>
 6ce:	66 90                	xchg   %ax,%ax
 6d0:	81 fa 00 00 00 1d    	cmp    $0x1d000000,%edx
 6d6:	0f 84 9d 04 00 00    	je     b79 <main+0x579>
 6dc:	77 6a                	ja     748 <main+0x148>
 6de:	81 fa 00 00 00 18    	cmp    $0x18000000,%edx
 6e4:	0f 84 a1 04 00 00    	je     b8b <main+0x58b>
 6ea:	0f 87 10 01 00 00    	ja     800 <main+0x200>
 6f0:	81 fa 00 00 00 15    	cmp    $0x15000000,%edx
 6f6:	0f 84 b3 03 00 00    	je     aaf <main+0x4af>
 6fc:	0f 86 a2 02 00 00    	jbe    9a4 <main+0x3a4>
 702:	81 fa 00 00 00 16    	cmp    $0x16000000,%edx
 708:	0f 84 6a 03 00 00    	je     a78 <main+0x478>
 70e:	81 fa 00 00 00 17    	cmp    $0x17000000,%edx
 714:	0f 85 ab 02 00 00    	jne    9c5 <main+0x3c5>
 71a:	8b 15 b8 19 20 00    	mov    0x2019b8(%rip),%edx        # 2020d8 <vB>
 720:	89 15 b6 19 20 00    	mov    %edx,0x2019b6(%rip)        # 2020dc <vA>
 726:	e9 15 ff ff ff       	jmpq   640 <main+0x40>
 72b:	0f 1f 44 00 00       	nopl   0x0(%rax,%rax,1)
 730:	81 e1 ff ff ff 7f    	and    $0x7fffffff,%ecx
 736:	89 0d 9c 19 20 00    	mov    %ecx,0x20199c(%rip)        # 2020d8 <vB>
 73c:	e9 ff fe ff ff       	jmpq   640 <main+0x40>
 741:	0f 1f 80 00 00 00 00 	nopl   0x0(%rax)
 748:	81 fa 00 00 00 22    	cmp    $0x22000000,%edx
 74e:	0f 84 0a 04 00 00    	je     b5e <main+0x55e>
 754:	0f 86 e6 00 00 00    	jbe    840 <main+0x240>
 75a:	81 fa 00 00 00 25    	cmp    $0x25000000,%edx
 760:	0f 84 86 00 00 00    	je     7ec <main+0x1ec>
 766:	0f 87 a4 01 00 00    	ja     910 <main+0x310>
 76c:	81 fa 00 00 00 23    	cmp    $0x23000000,%edx
 772:	74 7f                	je     7f3 <main+0x1f3>
 774:	81 fa 00 00 00 24    	cmp    $0x24000000,%edx
 77a:	0f 85 45 02 00 00    	jne    9c5 <main+0x3c5>
 780:	8b 15 4a 19 20 00    	mov    0x20194a(%rip),%edx        # 2020d0 <vR>
 786:	85 d2                	test   %edx,%edx
 788:	0f 84 b2 fe ff ff    	je     640 <main+0x40>
 78e:	83 ea 01             	sub    $0x1,%edx
 791:	0f b7 c1             	movzwl %cx,%eax
 794:	89 15 36 19 20 00    	mov    %edx,0x201936(%rip)        # 2020d0 <vR>
 79a:	e9 a1 fe ff ff       	jmpq   640 <main+0x40>
 79f:	90                   	nop
 7a0:	81 fa 00 00 00 0e    	cmp    $0xe000000,%edx
 7a6:	0f 84 dd 02 00 00    	je     a89 <main+0x489>
 7ac:	0f 87 1e 01 00 00    	ja     8d0 <main+0x2d0>
 7b2:	81 fa 00 00 00 0b    	cmp    $0xb000000,%edx
 7b8:	0f 84 38 03 00 00    	je     af6 <main+0x4f6>
 7be:	0f 86 81 01 00 00    	jbe    945 <main+0x345>
 7c4:	81 fa 00 00 00 0c    	cmp    $0xc000000,%edx
 7ca:	0f 84 16 03 00 00    	je     ae6 <main+0x4e6>
 7d0:	81 fa 00 00 00 0d    	cmp    $0xd000000,%edx
 7d6:	0f 85 e9 01 00 00    	jne    9c5 <main+0x3c5>
 7dc:	0f b7 15 f5 18 20 00 	movzwl 0x2018f5(%rip),%edx        # 2020d8 <vB>
 7e3:	83 2c 93 01          	subl   $0x1,(%rbx,%rdx,4)
 7e7:	e9 54 fe ff ff       	jmpq   640 <main+0x40>
 7ec:	48 89 05 d5 18 20 00 	mov    %rax,0x2018d5(%rip)        # 2020c8 <vL>
 7f3:	0f b7 c1             	movzwl %cx,%eax
 7f6:	e9 45 fe ff ff       	jmpq   640 <main+0x40>
 7fb:	0f 1f 44 00 00       	nopl   0x0(%rax,%rax,1)
 800:	81 fa 00 00 00 1a    	cmp    $0x1a000000,%edx
 806:	0f 84 20 03 00 00    	je     b2c <main+0x52c>
 80c:	0f 86 54 01 00 00    	jbe    966 <main+0x366>
 812:	81 fa 00 00 00 1b    	cmp    $0x1b000000,%edx
 818:	0f 84 35 03 00 00    	je     b53 <main+0x553>
 81e:	81 fa 00 00 00 1c    	cmp    $0x1c000000,%edx
 824:	0f 85 9b 01 00 00    	jne    9c5 <main+0x3c5>
 82a:	0f b6 05 ab 18 20 00 	movzbl 0x2018ab(%rip),%eax        # 2020dc <vA>
 831:	5b                   	pop    %rbx
 832:	89 05 a4 18 20 00    	mov    %eax,0x2018a4(%rip)        # 2020dc <vA>
 838:	c3                   	retq   
 839:	0f 1f 80 00 00 00 00 	nopl   0x0(%rax)
 840:	81 fa 00 00 00 1f    	cmp    $0x1f000000,%edx
 846:	0f 84 d5 01 00 00    	je     a21 <main+0x421>
 84c:	0f 86 7a 01 00 00    	jbe    9cc <main+0x3cc>
 852:	81 fa 00 00 00 20    	cmp    $0x20000000,%edx
 858:	0f 84 eb 01 00 00    	je     a49 <main+0x449>
 85e:	81 fa 00 00 00 21    	cmp    $0x21000000,%edx
 864:	0f 85 5b 01 00 00    	jne    9c5 <main+0x3c5>
 86a:	8b 15 68 18 20 00    	mov    0x201868(%rip),%edx        # 2020d8 <vB>
 870:	8b 35 66 18 20 00    	mov    0x201866(%rip),%esi        # 2020dc <vA>
 876:	21 d6                	and    %edx,%esi
 878:	39 f2                	cmp    %esi,%edx
 87a:	0f 85 c0 fd ff ff    	jne    640 <main+0x40>
 880:	e9 6e ff ff ff       	jmpq   7f3 <main+0x1f3>
 885:	0f 1f 00             	nopl   (%rax)
 888:	81 fa 00 00 00 06    	cmp    $0x6000000,%edx
 88e:	0f 84 6b 01 00 00    	je     9ff <main+0x3ff>
 894:	0f 86 4c 01 00 00    	jbe    9e6 <main+0x3e6>
 89a:	81 fa 00 00 00 07    	cmp    $0x7000000,%edx
 8a0:	0f 84 f8 01 00 00    	je     a9e <main+0x49e>
 8a6:	81 fa 00 00 00 08    	cmp    $0x8000000,%edx
 8ac:	0f 85 13 01 00 00    	jne    9c5 <main+0x3c5>
 8b2:	0f b7 15 1f 18 20 00 	movzwl 0x20181f(%rip),%edx        # 2020d8 <vB>
 8b9:	8b 14 93             	mov    (%rbx,%rdx,4),%edx
 8bc:	89 15 1a 18 20 00    	mov    %edx,0x20181a(%rip)        # 2020dc <vA>
 8c2:	e9 79 fd ff ff       	jmpq   640 <main+0x40>
 8c7:	66 0f 1f 84 00 00 00 	nopw   0x0(%rax,%rax,1)
 8ce:	00 00 
 8d0:	81 fa 00 00 00 10    	cmp    $0x10000000,%edx
 8d6:	0f 84 5f 02 00 00    	je     b3b <main+0x53b>
 8dc:	0f 86 9d 00 00 00    	jbe    97f <main+0x37f>
 8e2:	81 fa 00 00 00 11    	cmp    $0x11000000,%edx
 8e8:	0f 84 59 02 00 00    	je     b47 <main+0x547>
 8ee:	81 fa 00 00 00 12    	cmp    $0x12000000,%edx
 8f4:	0f 85 cb 00 00 00    	jne    9c5 <main+0x3c5>
 8fa:	81 05 d4 17 20 00 00 	addl   $0x80000000,0x2017d4(%rip)        # 2020d8 <vB>
 901:	00 00 80 
 904:	e9 37 fd ff ff       	jmpq   640 <main+0x40>
 909:	0f 1f 80 00 00 00 00 	nopl   0x0(%rax)
 910:	81 fa 00 00 00 26    	cmp    $0x26000000,%edx
 916:	0f 84 f3 01 00 00    	je     b0f <main+0x50f>
 91c:	81 fa 00 00 00 27    	cmp    $0x27000000,%edx
 922:	0f 85 9d 00 00 00    	jne    9c5 <main+0x3c5>
 928:	48 8b 35 71 17 20 00 	mov    0x201771(%rip),%rsi        # 2020a0 <stdout@@GLIBC_2.2.5>
 92f:	8b 3d a7 17 20 00    	mov    0x2017a7(%rip),%edi        # 2020dc <vA>
 935:	e8 96 fc ff ff       	callq  5d0 <_IO_putc@plt>
 93a:	8b 05 80 17 20 00    	mov    0x201780(%rip),%eax        # 2020c0 <vZ>
 940:	e9 fb fc ff ff       	jmpq   640 <main+0x40>
 945:	81 fa 00 00 00 0a    	cmp    $0xa000000,%edx
 94b:	75 78                	jne    9c5 <main+0x3c5>
 94d:	0f b7 15 84 17 20 00 	movzwl 0x201784(%rip),%edx        # 2020d8 <vB>
 954:	0f b7 14 93          	movzwl (%rbx,%rdx,4),%edx
 958:	8b 14 93             	mov    (%rbx,%rdx,4),%edx
 95b:	89 15 7b 17 20 00    	mov    %edx,0x20177b(%rip)        # 2020dc <vA>
 961:	e9 da fc ff ff       	jmpq   640 <main+0x40>
 966:	81 fa 00 00 00 19    	cmp    $0x19000000,%edx
 96c:	75 57                	jne    9c5 <main+0x3c5>
 96e:	8b 15 60 17 20 00    	mov    0x201760(%rip),%edx        # 2020d4 <vT>
 974:	89 15 62 17 20 00    	mov    %edx,0x201762(%rip)        # 2020dc <vA>
 97a:	e9 c1 fc ff ff       	jmpq   640 <main+0x40>
 97f:	81 fa 00 00 00 0f    	cmp    $0xf000000,%edx
 985:	75 3e                	jne    9c5 <main+0x3c5>
 987:	8b 15 4b 17 20 00    	mov    0x20174b(%rip),%edx        # 2020d8 <vB>
 98d:	0f b7 ca             	movzwl %dx,%ecx
 990:	03 15 46 17 20 00    	add    0x201746(%rip),%edx        # 2020dc <vA>
 996:	8b 0c 8b             	mov    (%rbx,%rcx,4),%ecx
 999:	0f b7 d2             	movzwl %dx,%edx
 99c:	89 0c 93             	mov    %ecx,(%rbx,%rdx,4)
 99f:	e9 9c fc ff ff       	jmpq   640 <main+0x40>
 9a4:	81 fa 00 00 00 14    	cmp    $0x14000000,%edx
 9aa:	75 19                	jne    9c5 <main+0x3c5>
 9ac:	8b 15 2a 17 20 00    	mov    0x20172a(%rip),%edx        # 2020dc <vA>
 9b2:	89 15 20 17 20 00    	mov    %edx,0x201720(%rip)        # 2020d8 <vB>
 9b8:	e9 83 fc ff ff       	jmpq   640 <main+0x40>
 9bd:	85 d2                	test   %edx,%edx
 9bf:	0f 84 7b fc ff ff    	je     640 <main+0x40>
 9c5:	b8 02 00 00 00       	mov    $0x2,%eax
 9ca:	5b                   	pop    %rbx
 9cb:	c3                   	retq   
 9cc:	81 fa 00 00 00 1e    	cmp    $0x1e000000,%edx
 9d2:	75 f1                	jne    9c5 <main+0x3c5>
 9d4:	83 3d fd 16 20 00 00 	cmpl   $0x0,0x2016fd(%rip)        # 2020d8 <vB>
 9db:	0f 85 5f fc ff ff    	jne    640 <main+0x40>
 9e1:	e9 0d fe ff ff       	jmpq   7f3 <main+0x1f3>
 9e6:	81 fa 00 00 00 05    	cmp    $0x5000000,%edx
 9ec:	75 d7                	jne    9c5 <main+0x3c5>
 9ee:	8b 15 e4 16 20 00    	mov    0x2016e4(%rip),%edx        # 2020d8 <vB>
 9f4:	31 15 e2 16 20 00    	xor    %edx,0x2016e2(%rip)        # 2020dc <vA>
 9fa:	e9 41 fc ff ff       	jmpq   640 <main+0x40>
 9ff:	8b 0d d3 16 20 00    	mov    0x2016d3(%rip),%ecx        # 2020d8 <vB>
 a05:	d3 25 d1 16 20 00    	shll   %cl,0x2016d1(%rip)        # 2020dc <vA>
 a0b:	e9 30 fc ff ff       	jmpq   640 <main+0x40>
 a10:	8b 15 c2 16 20 00    	mov    0x2016c2(%rip),%edx        # 2020d8 <vB>
 a16:	29 15 c0 16 20 00    	sub    %edx,0x2016c0(%rip)        # 2020dc <vA>
 a1c:	e9 1f fc ff ff       	jmpq   640 <main+0x40>
 a21:	8b 3d b1 16 20 00    	mov    0x2016b1(%rip),%edi        # 2020d8 <vB>
 a27:	39 3d af 16 20 00    	cmp    %edi,0x2016af(%rip)        # 2020dc <vA>
 a2d:	0f 85 0d fc ff ff    	jne    640 <main+0x40>
 a33:	e9 bb fd ff ff       	jmpq   7f3 <main+0x1f3>
 a38:	8b 15 9a 16 20 00    	mov    0x20169a(%rip),%edx        # 2020d8 <vB>
 a3e:	21 15 98 16 20 00    	and    %edx,0x201698(%rip)        # 2020dc <vA>
 a44:	e9 f7 fb ff ff       	jmpq   640 <main+0x40>
 a49:	83 3d 8c 16 20 00 00 	cmpl   $0x0,0x20168c(%rip)        # 2020dc <vA>
 a50:	0f 89 ea fb ff ff    	jns    640 <main+0x40>
 a56:	e9 98 fd ff ff       	jmpq   7f3 <main+0x1f3>
 a5b:	8b 15 7b 16 20 00    	mov    0x20167b(%rip),%edx        # 2020dc <vA>
 a61:	8b 0d 71 16 20 00    	mov    0x201671(%rip),%ecx        # 2020d8 <vB>
 a67:	89 15 6b 16 20 00    	mov    %edx,0x20166b(%rip)        # 2020d8 <vB>
 a6d:	89 0d 69 16 20 00    	mov    %ecx,0x201669(%rip)        # 2020dc <vA>
 a73:	e9 c8 fb ff ff       	jmpq   640 <main+0x40>
 a78:	8b 15 5e 16 20 00    	mov    0x20165e(%rip),%edx        # 2020dc <vA>
 a7e:	89 15 50 16 20 00    	mov    %edx,0x201650(%rip)        # 2020d4 <vT>
 a84:	e9 b7 fb ff ff       	jmpq   640 <main+0x40>
 a89:	0f b7 15 48 16 20 00 	movzwl 0x201648(%rip),%edx        # 2020d8 <vB>
 a90:	8b 14 93             	mov    (%rbx,%rdx,4),%edx
 a93:	89 15 3f 16 20 00    	mov    %edx,0x20163f(%rip)        # 2020d8 <vB>
 a99:	e9 a2 fb ff ff       	jmpq   640 <main+0x40>
 a9e:	8b 0d 34 16 20 00    	mov    0x201634(%rip),%ecx        # 2020d8 <vB>
 aa4:	d3 2d 32 16 20 00    	shrl   %cl,0x201632(%rip)        # 2020dc <vA>
 aaa:	e9 91 fb ff ff       	jmpq   640 <main+0x40>
 aaf:	8b 15 27 16 20 00    	mov    0x201627(%rip),%edx        # 2020dc <vA>
 ab5:	89 15 15 16 20 00    	mov    %edx,0x201615(%rip)        # 2020d0 <vR>
 abb:	e9 80 fb ff ff       	jmpq   640 <main+0x40>
 ac0:	8b 15 12 16 20 00    	mov    0x201612(%rip),%edx        # 2020d8 <vB>
 ac6:	01 15 10 16 20 00    	add    %edx,0x201610(%rip)        # 2020dc <vA>
 acc:	e9 6f fb ff ff       	jmpq   640 <main+0x40>
 ad1:	0f b7 15 00 16 20 00 	movzwl 0x201600(%rip),%edx        # 2020d8 <vB>
 ad8:	8b 0d fe 15 20 00    	mov    0x2015fe(%rip),%ecx        # 2020dc <vA>
 ade:	89 0c 93             	mov    %ecx,(%rbx,%rdx,4)
 ae1:	e9 5a fb ff ff       	jmpq   640 <main+0x40>
 ae6:	0f b7 15 eb 15 20 00 	movzwl 0x2015eb(%rip),%edx        # 2020d8 <vB>
 aed:	83 04 93 01          	addl   $0x1,(%rbx,%rdx,4)
 af1:	e9 4a fb ff ff       	jmpq   640 <main+0x40>
 af6:	0f b7 15 db 15 20 00 	movzwl 0x2015db(%rip),%edx        # 2020d8 <vB>
 afd:	8b 0d d9 15 20 00    	mov    0x2015d9(%rip),%ecx        # 2020dc <vA>
 b03:	0f b7 14 93          	movzwl (%rbx,%rdx,4),%edx
 b07:	89 0c 93             	mov    %ecx,(%rbx,%rdx,4)
 b0a:	e9 31 fb ff ff       	jmpq   640 <main+0x40>
 b0f:	48 8b 3d 9a 15 20 00 	mov    0x20159a(%rip),%rdi        # 2020b0 <stdin@@GLIBC_2.2.5>
 b16:	e8 c5 fa ff ff       	callq  5e0 <_IO_getc@plt>
 b1b:	89 05 bb 15 20 00    	mov    %eax,0x2015bb(%rip)        # 2020dc <vA>
 b21:	8b 05 99 15 20 00    	mov    0x201599(%rip),%eax        # 2020c0 <vZ>
 b27:	e9 14 fb ff ff       	jmpq   640 <main+0x40>
 b2c:	c7 05 a6 15 20 00 00 	movl   $0x10000,0x2015a6(%rip)        # 2020dc <vA>
 b33:	00 01 00 
 b36:	e9 05 fb ff ff       	jmpq   640 <main+0x40>
 b3b:	83 05 96 15 20 00 01 	addl   $0x1,0x201596(%rip)        # 2020d8 <vB>
 b42:	e9 f9 fa ff ff       	jmpq   640 <main+0x40>
 b47:	83 2d 8a 15 20 00 01 	subl   $0x1,0x20158a(%rip)        # 2020d8 <vB>
 b4e:	e9 ed fa ff ff       	jmpq   640 <main+0x40>
 b53:	8b 05 6f 15 20 00    	mov    0x20156f(%rip),%eax        # 2020c8 <vL>
 b59:	e9 e2 fa ff ff       	jmpq   640 <main+0x40>
 b5e:	8b 15 74 15 20 00    	mov    0x201574(%rip),%edx        # 2020d8 <vB>
 b64:	8b 35 72 15 20 00    	mov    0x201572(%rip),%esi        # 2020dc <vA>
 b6a:	09 d6                	or     %edx,%esi
 b6c:	39 f2                	cmp    %esi,%edx
 b6e:	0f 85 cc fa ff ff    	jne    640 <main+0x40>
 b74:	e9 7a fc ff ff       	jmpq   7f3 <main+0x1f3>
 b79:	83 3d 5c 15 20 00 00 	cmpl   $0x0,0x20155c(%rip)        # 2020dc <vA>
 b80:	0f 85 ba fa ff ff    	jne    640 <main+0x40>
 b86:	e9 68 fc ff ff       	jmpq   7f3 <main+0x1f3>
 b8b:	8b 15 3f 15 20 00    	mov    0x20153f(%rip),%edx        # 2020d0 <vR>
 b91:	89 15 45 15 20 00    	mov    %edx,0x201545(%rip)        # 2020dc <vA>
 b97:	e9 a4 fa ff ff       	jmpq   640 <main+0x40>
 b9c:	0f 1f 40 00          	nopl   0x0(%rax)

0000000000000ba0 <_start>:
 ba0:	31 ed                	xor    %ebp,%ebp
 ba2:	49 89 d1             	mov    %rdx,%r9
 ba5:	5e                   	pop    %rsi
 ba6:	48 89 e2             	mov    %rsp,%rdx
 ba9:	48 83 e4 f0          	and    $0xfffffffffffffff0,%rsp
 bad:	50                   	push   %rax
 bae:	54                   	push   %rsp
 baf:	4c 8d 05 da 01 00 00 	lea    0x1da(%rip),%r8        # d90 <__libc_csu_fini>
 bb6:	48 8d 0d 63 01 00 00 	lea    0x163(%rip),%rcx        # d20 <__libc_csu_init>
 bbd:	48 8d 3d 3c fa ff ff 	lea    -0x5c4(%rip),%rdi        # 600 <main>
 bc4:	ff 15 16 14 20 00    	callq  *0x201416(%rip)        # 201fe0 <__libc_start_main@GLIBC_2.2.5>
 bca:	f4                   	hlt    
 bcb:	0f 1f 44 00 00       	nopl   0x0(%rax,%rax,1)

0000000000000bd0 <deregister_tm_clones>:
 bd0:	48 8d 3d b1 14 20 00 	lea    0x2014b1(%rip),%rdi        # 202088 <__TMC_END__>
 bd7:	55                   	push   %rbp
 bd8:	48 8d 05 a9 14 20 00 	lea    0x2014a9(%rip),%rax        # 202088 <__TMC_END__>
 bdf:	48 39 f8             	cmp    %rdi,%rax
 be2:	48 89 e5             	mov    %rsp,%rbp
 be5:	74 19                	je     c00 <deregister_tm_clones+0x30>
 be7:	48 8b 05 ea 13 20 00 	mov    0x2013ea(%rip),%rax        # 201fd8 <_ITM_deregisterTMCloneTable>
 bee:	48 85 c0             	test   %rax,%rax
 bf1:	74 0d                	je     c00 <deregister_tm_clones+0x30>
 bf3:	5d                   	pop    %rbp
 bf4:	ff e0                	jmpq   *%rax
 bf6:	66 2e 0f 1f 84 00 00 	nopw   %cs:0x0(%rax,%rax,1)
 bfd:	00 00 00 
 c00:	5d                   	pop    %rbp
 c01:	c3                   	retq   
 c02:	0f 1f 40 00          	nopl   0x0(%rax)
 c06:	66 2e 0f 1f 84 00 00 	nopw   %cs:0x0(%rax,%rax,1)
 c0d:	00 00 00 

0000000000000c10 <register_tm_clones>:
 c10:	48 8d 3d 71 14 20 00 	lea    0x201471(%rip),%rdi        # 202088 <__TMC_END__>
 c17:	48 8d 35 6a 14 20 00 	lea    0x20146a(%rip),%rsi        # 202088 <__TMC_END__>
 c1e:	55                   	push   %rbp
 c1f:	48 29 fe             	sub    %rdi,%rsi
 c22:	48 89 e5             	mov    %rsp,%rbp
 c25:	48 c1 fe 03          	sar    $0x3,%rsi
 c29:	48 89 f0             	mov    %rsi,%rax
 c2c:	48 c1 e8 3f          	shr    $0x3f,%rax
 c30:	48 01 c6             	add    %rax,%rsi
 c33:	48 d1 fe             	sar    %rsi
 c36:	74 18                	je     c50 <register_tm_clones+0x40>
 c38:	48 8b 05 b1 13 20 00 	mov    0x2013b1(%rip),%rax        # 201ff0 <_ITM_registerTMCloneTable>
 c3f:	48 85 c0             	test   %rax,%rax
 c42:	74 0c                	je     c50 <register_tm_clones+0x40>
 c44:	5d                   	pop    %rbp
 c45:	ff e0                	jmpq   *%rax
 c47:	66 0f 1f 84 00 00 00 	nopw   0x0(%rax,%rax,1)
 c4e:	00 00 
 c50:	5d                   	pop    %rbp
 c51:	c3                   	retq   
 c52:	0f 1f 40 00          	nopl   0x0(%rax)
 c56:	66 2e 0f 1f 84 00 00 	nopw   %cs:0x0(%rax,%rax,1)
 c5d:	00 00 00 

0000000000000c60 <__do_global_dtors_aux>:
 c60:	80 3d 51 14 20 00 00 	cmpb   $0x0,0x201451(%rip)        # 2020b8 <completed.7001>
 c67:	75 2f                	jne    c98 <__do_global_dtors_aux+0x38>
 c69:	48 83 3d 87 13 20 00 	cmpq   $0x0,0x201387(%rip)        # 201ff8 <__cxa_finalize@GLIBC_2.2.5>
 c70:	00 
 c71:	55                   	push   %rbp
 c72:	48 89 e5             	mov    %rsp,%rbp
 c75:	74 0c                	je     c83 <__do_global_dtors_aux+0x23>
 c77:	48 8b 3d ca 13 20 00 	mov    0x2013ca(%rip),%rdi        # 202048 <__dso_handle>
 c7e:	e8 6d f9 ff ff       	callq  5f0 <__cxa_finalize@plt>
 c83:	e8 48 ff ff ff       	callq  bd0 <deregister_tm_clones>
 c88:	c6 05 29 14 20 00 01 	movb   $0x1,0x201429(%rip)        # 2020b8 <completed.7001>
 c8f:	5d                   	pop    %rbp
 c90:	c3                   	retq   
 c91:	0f 1f 80 00 00 00 00 	nopl   0x0(%rax)
 c98:	f3 c3                	repz retq 
 c9a:	66 0f 1f 44 00 00    	nopw   0x0(%rax,%rax,1)

0000000000000ca0 <frame_dummy>:
 ca0:	55                   	push   %rbp
 ca1:	48 89 e5             	mov    %rsp,%rbp
 ca4:	5d                   	pop    %rbp
 ca5:	e9 66 ff ff ff       	jmpq   c10 <register_tm_clones>
 caa:	66 0f 1f 44 00 00    	nopw   0x0(%rax,%rax,1)

0000000000000cb0 <safe>:
 cb0:	0f b7 c7             	movzwl %di,%eax
 cb3:	c3                   	retq   
 cb4:	66 90                	xchg   %ax,%ax
 cb6:	66 2e 0f 1f 84 00 00 	nopw   %cs:0x0(%rax,%rax,1)
 cbd:	00 00 00 

0000000000000cc0 <enbyte>:
 cc0:	40 0f b6 c7          	movzbl %dil,%eax
 cc4:	c3                   	retq   
 cc5:	90                   	nop
 cc6:	66 2e 0f 1f 84 00 00 	nopw   %cs:0x0(%rax,%rax,1)
 ccd:	00 00 00 

0000000000000cd0 <enrange>:
 cd0:	89 f8                	mov    %edi,%eax
 cd2:	25 ff ff ff 7f       	and    $0x7fffffff,%eax
 cd7:	c3                   	retq   
 cd8:	0f 1f 84 00 00 00 00 	nopl   0x0(%rax,%rax,1)
 cdf:	00 

0000000000000ce0 <enshift>:
 ce0:	89 f8                	mov    %edi,%eax
 ce2:	83 e0 1f             	and    $0x1f,%eax
 ce5:	c3                   	retq   
 ce6:	66 2e 0f 1f 84 00 00 	nopw   %cs:0x0(%rax,%rax,1)
 ced:	00 00 00 

0000000000000cf0 <loadProgram>:
 cf0:	66 0f 6f 05 68 13 20 	movdqa 0x201368(%rip),%xmm0        # 202060 <program>
 cf7:	00 
 cf8:	48 8b 05 81 13 20 00 	mov    0x201381(%rip),%rax        # 202080 <program+0x20>
 cff:	0f 29 05 da 13 20 00 	movaps %xmm0,0x2013da(%rip)        # 2020e0 <dm>
 d06:	66 0f 6f 05 62 13 20 	movdqa 0x201362(%rip),%xmm0        # 202070 <program+0x10>
 d0d:	00 
 d0e:	48 89 05 eb 13 20 00 	mov    %rax,0x2013eb(%rip)        # 202100 <dm+0x20>
 d15:	0f 29 05 d4 13 20 00 	movaps %xmm0,0x2013d4(%rip)        # 2020f0 <dm+0x10>
 d1c:	c3                   	retq   
 d1d:	0f 1f 00             	nopl   (%rax)

0000000000000d20 <__libc_csu_init>:
 d20:	41 57                	push   %r15
 d22:	41 56                	push   %r14
 d24:	41 89 ff             	mov    %edi,%r15d
 d27:	41 55                	push   %r13
 d29:	41 54                	push   %r12
 d2b:	4c 8d 25 b6 10 20 00 	lea    0x2010b6(%rip),%r12        # 201de8 <__frame_dummy_init_array_entry>
 d32:	55                   	push   %rbp
 d33:	48 8d 2d b6 10 20 00 	lea    0x2010b6(%rip),%rbp        # 201df0 <__init_array_end>
 d3a:	53                   	push   %rbx
 d3b:	49 89 f6             	mov    %rsi,%r14
 d3e:	49 89 d5             	mov    %rdx,%r13
 d41:	4c 29 e5             	sub    %r12,%rbp
 d44:	48 83 ec 08          	sub    $0x8,%rsp
 d48:	48 c1 fd 03          	sar    $0x3,%rbp
 d4c:	e8 4f f8 ff ff       	callq  5a0 <_init>
 d51:	48 85 ed             	test   %rbp,%rbp
 d54:	74 20                	je     d76 <__libc_csu_init+0x56>
 d56:	31 db                	xor    %ebx,%ebx
 d58:	0f 1f 84 00 00 00 00 	nopl   0x0(%rax,%rax,1)
 d5f:	00 
 d60:	4c 89 ea             	mov    %r13,%rdx
 d63:	4c 89 f6             	mov    %r14,%rsi
 d66:	44 89 ff             	mov    %r15d,%edi
 d69:	41 ff 14 dc          	callq  *(%r12,%rbx,8)
 d6d:	48 83 c3 01          	add    $0x1,%rbx
 d71:	48 39 dd             	cmp    %rbx,%rbp
 d74:	75 ea                	jne    d60 <__libc_csu_init+0x40>
 d76:	48 83 c4 08          	add    $0x8,%rsp
 d7a:	5b                   	pop    %rbx
 d7b:	5d                   	pop    %rbp
 d7c:	41 5c                	pop    %r12
 d7e:	41 5d                	pop    %r13
 d80:	41 5e                	pop    %r14
 d82:	41 5f                	pop    %r15
 d84:	c3                   	retq   
 d85:	90                   	nop
 d86:	66 2e 0f 1f 84 00 00 	nopw   %cs:0x0(%rax,%rax,1)
 d8d:	00 00 00 

0000000000000d90 <__libc_csu_fini>:
 d90:	f3 c3                	repz retq 

Disassembly of section .fini:

0000000000000d94 <_fini>:
 d94:	48 83 ec 08          	sub    $0x8,%rsp
 d98:	48 83 c4 08          	add    $0x8,%rsp
 d9c:	c3                   	retq   
