
qmisc:     file format elf32-i386


Disassembly of section .text:

08048074 <vm_success>:
 8048074:	b8 00 00 00 00       	mov    $0x0,%eax
 8048079:	89 c3                	mov    %eax,%ebx
 804807b:	b8 01 00 00 00       	mov    $0x1,%eax
 8048080:	cd 80                	int    $0x80

08048082 <vm_failure>:
 8048082:	b8 01 00 00 00       	mov    $0x1,%eax
 8048087:	89 c3                	mov    %eax,%ebx
 8048089:	b8 01 00 00 00       	mov    $0x1,%eax
 804808e:	cd 80                	int    $0x80

08048090 <vm_illegal>:
 8048090:	b8 02 00 00 00       	mov    $0x2,%eax
 8048095:	89 c3                	mov    %eax,%ebx
 8048097:	b8 01 00 00 00       	mov    $0x1,%eax
 804809c:	cd 80                	int    $0x80

0804809e <_start>:
 804809e:	31 c0                	xor    %eax,%eax
 80480a0:	31 db                	xor    %ebx,%ebx
 80480a2:	31 d2                	xor    %edx,%edx
 80480a4:	31 f6                	xor    %esi,%esi
 80480a6:	31 ff                	xor    %edi,%edi
 80480a8:	31 c9                	xor    %ecx,%ecx

080480aa <vm_init>:
 80480aa:	8d 3d b5 80 04 08    	lea    0x80480b5,%edi
 80480b0:	e9 79 0c 00 00       	jmp    8048d2e <assertParentSize>
 80480b5:	8d 3d c0 80 04 08    	lea    0x80480c0,%edi
 80480bb:	e9 50 0c 00 00       	jmp    8048d10 <setupToClearParent>
 80480c0:	8d 3d cb 80 04 08    	lea    0x80480cb,%edi
 80480c6:	e9 25 0c 00 00       	jmp    8048cf0 <doFill>
 80480cb:	e9 1b 0b 00 00       	jmp    8048beb <program>

080480d0 <nexti>:
 80480d0:	bb 00 20 00 00       	mov    $0x2000,%ebx
 80480d5:	81 e3 ff ff ff 7f    	and    $0x7fffffff,%ebx
 80480db:	89 d9                	mov    %ebx,%ecx
 80480dd:	81 e1 ff ff ff 0f    	and    $0xfffffff,%ecx
 80480e3:	8b 1c 8d 68 9d 04 08 	mov    0x8049d68(,%ecx,4),%ebx
 80480ea:	43                   	inc    %ebx
 80480eb:	89 d8                	mov    %ebx,%eax
 80480ed:	bb ff 0f 00 00       	mov    $0xfff,%ebx
 80480f2:	81 e3 ff ff ff 7f    	and    $0x7fffffff,%ebx
 80480f8:	21 d8                	and    %ebx,%eax
 80480fa:	bb 00 20 00 00       	mov    $0x2000,%ebx
 80480ff:	81 e3 ff ff ff 7f    	and    $0x7fffffff,%ebx
 8048105:	89 d9                	mov    %ebx,%ecx
 8048107:	81 e1 ff ff ff 0f    	and    $0xfffffff,%ecx
 804810d:	89 04 8d 68 9d 04 08 	mov    %eax,0x8049d68(,%ecx,4)
 8048114:	89 c3                	mov    %eax,%ebx
 8048116:	4b                   	dec    %ebx
 8048117:	89 d9                	mov    %ebx,%ecx
 8048119:	81 e1 ff ff ff 0f    	and    $0xfffffff,%ecx
 804811f:	8b 04 8d 68 9d 04 08 	mov    0x8049d68(,%ecx,4),%eax
 8048126:	89 c2                	mov    %eax,%edx
 8048128:	bb 00 00 00 00       	mov    $0x0,%ebx
 804812d:	81 e3 ff ff ff 7f    	and    $0x7fffffff,%ebx
 8048133:	81 f3 00 00 00 80    	xor    $0x80000000,%ebx
 8048139:	21 d8                	and    %ebx,%eax
 804813b:	39 d8                	cmp    %ebx,%eax
 804813d:	75 05                	jne    8048144 <nexti+0x74>
 804813f:	e9 72 06 00 00       	jmp    80487b6 <v_Imm>
 8048144:	89 d0                	mov    %edx,%eax
 8048146:	bb 00 00 00 40       	mov    $0x40000000,%ebx
 804814b:	81 e3 ff ff ff 7f    	and    $0x7fffffff,%ebx
 8048151:	21 d8                	and    %ebx,%eax
 8048153:	39 d8                	cmp    %ebx,%eax
 8048155:	75 05                	jne    804815c <nexti+0x8c>
 8048157:	e9 db 01 00 00       	jmp    8048337 <v_complex_instrs>
 804815c:	89 d0                	mov    %edx,%eax
 804815e:	bb 00 00 00 ff       	mov    $0xff000000,%ebx
 8048163:	81 e3 ff ff ff 7f    	and    $0x7fffffff,%ebx
 8048169:	21 d8                	and    %ebx,%eax
 804816b:	bb 00 00 00 00       	mov    $0x0,%ebx
 8048170:	81 e3 ff ff ff 7f    	and    $0x7fffffff,%ebx
 8048176:	39 d8                	cmp    %ebx,%eax
 8048178:	75 05                	jne    804817f <nexti+0xaf>
 804817a:	e9 9f 08 00 00       	jmp    8048a1e <v_Noop>
 804817f:	bb 00 00 00 01       	mov    $0x1000000,%ebx
 8048184:	81 e3 ff ff ff 7f    	and    $0x7fffffff,%ebx
 804818a:	39 d8                	cmp    %ebx,%eax
 804818c:	75 05                	jne    8048193 <nexti+0xc3>
 804818e:	e9 1e 02 00 00       	jmp    80483b1 <v_Add>
 8048193:	bb 00 00 00 02       	mov    $0x2000000,%ebx
 8048198:	81 e3 ff ff ff 7f    	and    $0x7fffffff,%ebx
 804819e:	39 d8                	cmp    %ebx,%eax
 80481a0:	75 05                	jne    80481a7 <nexti+0xd7>
 80481a2:	e9 5f 02 00 00       	jmp    8048406 <v_Sub>
 80481a7:	bb 00 00 00 04       	mov    $0x4000000,%ebx
 80481ac:	81 e3 ff ff ff 7f    	and    $0x7fffffff,%ebx
 80481b2:	39 d8                	cmp    %ebx,%eax
 80481b4:	75 05                	jne    80481bb <nexti+0xeb>
 80481b6:	e9 a0 02 00 00       	jmp    804845b <v_And>
 80481bb:	bb 00 00 00 03       	mov    $0x3000000,%ebx
 80481c0:	81 e3 ff ff ff 7f    	and    $0x7fffffff,%ebx
 80481c6:	39 d8                	cmp    %ebx,%eax
 80481c8:	75 05                	jne    80481cf <nexti+0xff>
 80481ca:	e9 e1 02 00 00       	jmp    80484b0 <v_Or>
 80481cf:	bb 00 00 00 05       	mov    $0x5000000,%ebx
 80481d4:	81 e3 ff ff ff 7f    	and    $0x7fffffff,%ebx
 80481da:	39 d8                	cmp    %ebx,%eax
 80481dc:	75 05                	jne    80481e3 <nexti+0x113>
 80481de:	e9 22 03 00 00       	jmp    8048505 <v_Xor>
 80481e3:	bb 00 00 00 08       	mov    $0x8000000,%ebx
 80481e8:	81 e3 ff ff ff 7f    	and    $0x7fffffff,%ebx
 80481ee:	39 d8                	cmp    %ebx,%eax
 80481f0:	75 05                	jne    80481f7 <nexti+0x127>
 80481f2:	e9 63 03 00 00       	jmp    804855a <v_Shl>
 80481f7:	bb 00 00 00 09       	mov    $0x9000000,%ebx
 80481fc:	81 e3 ff ff ff 7f    	and    $0x7fffffff,%ebx
 8048202:	39 d8                	cmp    %ebx,%eax
 8048204:	75 05                	jne    804820b <nexti+0x13b>
 8048206:	e9 a9 03 00 00       	jmp    80485b4 <v_Shr>
 804820b:	bb 00 00 00 10       	mov    $0x10000000,%ebx
 8048210:	81 e3 ff ff ff 7f    	and    $0x7fffffff,%ebx
 8048216:	39 d8                	cmp    %ebx,%eax
 8048218:	75 05                	jne    804821f <nexti+0x14f>
 804821a:	e9 ef 03 00 00       	jmp    804860e <v_Get>
 804821f:	bb 00 00 00 11       	mov    $0x11000000,%ebx
 8048224:	81 e3 ff ff ff 7f    	and    $0x7fffffff,%ebx
 804822a:	39 d8                	cmp    %ebx,%eax
 804822c:	75 05                	jne    8048233 <nexti+0x163>
 804822e:	e9 3f 04 00 00       	jmp    8048672 <v_Put>
 8048233:	bb 00 00 00 12       	mov    $0x12000000,%ebx
 8048238:	81 e3 ff ff ff 7f    	and    $0x7fffffff,%ebx
 804823e:	39 d8                	cmp    %ebx,%eax
 8048240:	75 05                	jne    8048247 <nexti+0x177>
 8048242:	e9 93 04 00 00       	jmp    80486da <v_At>
 8048247:	bb 00 00 00 20       	mov    $0x20000000,%ebx
 804824c:	81 e3 ff ff ff 7f    	and    $0x7fffffff,%ebx
 8048252:	39 d8                	cmp    %ebx,%eax
 8048254:	75 05                	jne    804825b <nexti+0x18b>
 8048256:	e9 e3 04 00 00       	jmp    804873e <v_Inc>
 804825b:	bb 00 00 00 21       	mov    $0x21000000,%ebx
 8048260:	81 e3 ff ff ff 7f    	and    $0x7fffffff,%ebx
 8048266:	39 d8                	cmp    %ebx,%eax
 8048268:	75 05                	jne    804826f <nexti+0x19f>
 804826a:	e9 0b 05 00 00       	jmp    804877a <v_Dec>
 804826f:	bb 00 00 00 23       	mov    $0x23000000,%ebx
 8048274:	81 e3 ff ff ff 7f    	and    $0x7fffffff,%ebx
 804827a:	39 d8                	cmp    %ebx,%eax
 804827c:	75 05                	jne    8048283 <nexti+0x1b3>
 804827e:	e9 a6 05 00 00       	jmp    8048829 <v_Swap>
 8048283:	bb 00 00 00 30       	mov    $0x30000000,%ebx
 8048288:	81 e3 ff ff ff 7f    	and    $0x7fffffff,%ebx
 804828e:	39 d8                	cmp    %ebx,%eax
 8048290:	75 05                	jne    8048297 <nexti+0x1c7>
 8048292:	e9 05 06 00 00       	jmp    804889c <v_Tob>
 8048297:	bb 00 00 00 31       	mov    $0x31000000,%ebx
 804829c:	81 e3 ff ff ff 7f    	and    $0x7fffffff,%ebx
 80482a2:	39 d8                	cmp    %ebx,%eax
 80482a4:	75 05                	jne    80482ab <nexti+0x1db>
 80482a6:	e9 2a 06 00 00       	jmp    80488d5 <v_Tor>
 80482ab:	bb 00 00 00 32       	mov    $0x32000000,%ebx
 80482b0:	81 e3 ff ff ff 7f    	and    $0x7fffffff,%ebx
 80482b6:	39 d8                	cmp    %ebx,%eax
 80482b8:	75 05                	jne    80482bf <nexti+0x1ef>
 80482ba:	e9 4f 06 00 00       	jmp    804890e <v_Tot>
 80482bf:	bb 00 00 00 33       	mov    $0x33000000,%ebx
 80482c4:	81 e3 ff ff ff 7f    	and    $0x7fffffff,%ebx
 80482ca:	39 d8                	cmp    %ebx,%eax
 80482cc:	75 05                	jne    80482d3 <nexti+0x203>
 80482ce:	e9 74 06 00 00       	jmp    8048947 <v_Fromb>
 80482d3:	bb 00 00 00 34       	mov    $0x34000000,%ebx
 80482d8:	81 e3 ff ff ff 7f    	and    $0x7fffffff,%ebx
 80482de:	39 d8                	cmp    %ebx,%eax
 80482e0:	75 05                	jne    80482e7 <nexti+0x217>
 80482e2:	e9 99 06 00 00       	jmp    8048980 <v_Fromr>
 80482e7:	bb 00 00 00 35       	mov    $0x35000000,%ebx
 80482ec:	81 e3 ff ff ff 7f    	and    $0x7fffffff,%ebx
 80482f2:	39 d8                	cmp    %ebx,%eax
 80482f4:	75 05                	jne    80482fb <nexti+0x22b>
 80482f6:	e9 be 06 00 00       	jmp    80489b9 <v_Fromt>
 80482fb:	bb 00 00 00 36       	mov    $0x36000000,%ebx
 8048300:	81 e3 ff ff ff 7f    	and    $0x7fffffff,%ebx
 8048306:	39 d8                	cmp    %ebx,%eax
 8048308:	75 05                	jne    804830f <nexti+0x23f>
 804830a:	e9 e3 06 00 00       	jmp    80489f2 <v_Mdm>
 804830f:	bb 00 00 00 37       	mov    $0x37000000,%ebx
 8048314:	81 e3 ff ff ff 7f    	and    $0x7fffffff,%ebx
 804831a:	39 d8                	cmp    %ebx,%eax
 804831c:	75 05                	jne    8048323 <nexti+0x253>
 804831e:	e9 e3 07 00 00       	jmp    8048b06 <v_Link>
 8048323:	bb 00 00 00 3f       	mov    $0x3f000000,%ebx
 8048328:	81 e3 ff ff ff 7f    	and    $0x7fffffff,%ebx
 804832e:	39 d8                	cmp    %ebx,%eax
 8048330:	75 05                	jne    8048337 <v_complex_instrs>
 8048332:	e9 7f 08 00 00       	jmp    8048bb6 <v_Halt>

08048337 <v_complex_instrs>:
 8048337:	89 d0                	mov    %edx,%eax
 8048339:	bb 00 00 00 ff       	mov    $0xff000000,%ebx
 804833e:	81 e3 ff ff ff 7f    	and    $0x7fffffff,%ebx
 8048344:	21 d8                	and    %ebx,%eax
 8048346:	bb 00 00 00 41       	mov    $0x41000000,%ebx
 804834b:	81 e3 ff ff ff 7f    	and    $0x7fffffff,%ebx
 8048351:	39 d8                	cmp    %ebx,%eax
 8048353:	75 05                	jne    804835a <v_complex_instrs+0x23>
 8048355:	e9 c9 06 00 00       	jmp    8048a23 <v_Jmpe>
 804835a:	bb 00 00 00 46       	mov    $0x46000000,%ebx
 804835f:	81 e3 ff ff ff 7f    	and    $0x7fffffff,%ebx
 8048365:	39 d8                	cmp    %ebx,%eax
 8048367:	75 05                	jne    804836e <v_complex_instrs+0x37>
 8048369:	e9 08 07 00 00       	jmp    8048a76 <v_Jump>
 804836e:	bb 00 00 00 50       	mov    $0x50000000,%ebx
 8048373:	81 e3 ff ff ff 7f    	and    $0x7fffffff,%ebx
 8048379:	39 d8                	cmp    %ebx,%eax
 804837b:	75 05                	jne    8048382 <v_complex_instrs+0x4b>
 804837d:	e9 bd 07 00 00       	jmp    8048b3f <v_Rpt>
 8048382:	bb 00 00 00 61       	mov    $0x61000000,%ebx
 8048387:	81 e3 ff ff ff 7f    	and    $0x7fffffff,%ebx
 804838d:	39 d8                	cmp    %ebx,%eax
 804838f:	75 05                	jne    8048396 <v_complex_instrs+0x5f>
 8048391:	e9 0e 07 00 00       	jmp    8048aa4 <v_Br>
 8048396:	bb 02 00 00 00       	mov    $0x2,%ebx
 804839b:	81 e3 ff ff ff 7f    	and    $0x7fffffff,%ebx
 80483a1:	89 d8                	mov    %ebx,%eax
 80483a3:	25 ff 00 00 00       	and    $0xff,%eax
 80483a8:	89 c3                	mov    %eax,%ebx
 80483aa:	b8 01 00 00 00       	mov    $0x1,%eax
 80483af:	cd 80                	int    $0x80

080483b1 <v_Add>:
 80483b1:	bb 01 20 00 00       	mov    $0x2001,%ebx
 80483b6:	81 e3 ff ff ff 7f    	and    $0x7fffffff,%ebx
 80483bc:	89 d9                	mov    %ebx,%ecx
 80483be:	81 e1 ff ff ff 0f    	and    $0xfffffff,%ecx
 80483c4:	8b 04 8d 68 9d 04 08 	mov    0x8049d68(,%ecx,4),%eax
 80483cb:	bb 02 20 00 00       	mov    $0x2002,%ebx
 80483d0:	81 e3 ff ff ff 7f    	and    $0x7fffffff,%ebx
 80483d6:	89 d9                	mov    %ebx,%ecx
 80483d8:	81 e1 ff ff ff 0f    	and    $0xfffffff,%ecx
 80483de:	8b 1c 8d 68 9d 04 08 	mov    0x8049d68(,%ecx,4),%ebx
 80483e5:	01 d8                	add    %ebx,%eax
 80483e7:	bb 01 20 00 00       	mov    $0x2001,%ebx
 80483ec:	81 e3 ff ff ff 7f    	and    $0x7fffffff,%ebx
 80483f2:	89 d9                	mov    %ebx,%ecx
 80483f4:	81 e1 ff ff ff 0f    	and    $0xfffffff,%ecx
 80483fa:	89 04 8d 68 9d 04 08 	mov    %eax,0x8049d68(,%ecx,4)
 8048401:	e9 ca fc ff ff       	jmp    80480d0 <nexti>

08048406 <v_Sub>:
 8048406:	bb 01 20 00 00       	mov    $0x2001,%ebx
 804840b:	81 e3 ff ff ff 7f    	and    $0x7fffffff,%ebx
 8048411:	89 d9                	mov    %ebx,%ecx
 8048413:	81 e1 ff ff ff 0f    	and    $0xfffffff,%ecx
 8048419:	8b 04 8d 68 9d 04 08 	mov    0x8049d68(,%ecx,4),%eax
 8048420:	bb 02 20 00 00       	mov    $0x2002,%ebx
 8048425:	81 e3 ff ff ff 7f    	and    $0x7fffffff,%ebx
 804842b:	89 d9                	mov    %ebx,%ecx
 804842d:	81 e1 ff ff ff 0f    	and    $0xfffffff,%ecx
 8048433:	8b 1c 8d 68 9d 04 08 	mov    0x8049d68(,%ecx,4),%ebx
 804843a:	29 d8                	sub    %ebx,%eax
 804843c:	bb 01 20 00 00       	mov    $0x2001,%ebx
 8048441:	81 e3 ff ff ff 7f    	and    $0x7fffffff,%ebx
 8048447:	89 d9                	mov    %ebx,%ecx
 8048449:	81 e1 ff ff ff 0f    	and    $0xfffffff,%ecx
 804844f:	89 04 8d 68 9d 04 08 	mov    %eax,0x8049d68(,%ecx,4)
 8048456:	e9 75 fc ff ff       	jmp    80480d0 <nexti>

0804845b <v_And>:
 804845b:	bb 01 20 00 00       	mov    $0x2001,%ebx
 8048460:	81 e3 ff ff ff 7f    	and    $0x7fffffff,%ebx
 8048466:	89 d9                	mov    %ebx,%ecx
 8048468:	81 e1 ff ff ff 0f    	and    $0xfffffff,%ecx
 804846e:	8b 04 8d 68 9d 04 08 	mov    0x8049d68(,%ecx,4),%eax
 8048475:	bb 02 20 00 00       	mov    $0x2002,%ebx
 804847a:	81 e3 ff ff ff 7f    	and    $0x7fffffff,%ebx
 8048480:	89 d9                	mov    %ebx,%ecx
 8048482:	81 e1 ff ff ff 0f    	and    $0xfffffff,%ecx
 8048488:	8b 1c 8d 68 9d 04 08 	mov    0x8049d68(,%ecx,4),%ebx
 804848f:	21 d8                	and    %ebx,%eax
 8048491:	bb 01 20 00 00       	mov    $0x2001,%ebx
 8048496:	81 e3 ff ff ff 7f    	and    $0x7fffffff,%ebx
 804849c:	89 d9                	mov    %ebx,%ecx
 804849e:	81 e1 ff ff ff 0f    	and    $0xfffffff,%ecx
 80484a4:	89 04 8d 68 9d 04 08 	mov    %eax,0x8049d68(,%ecx,4)
 80484ab:	e9 20 fc ff ff       	jmp    80480d0 <nexti>

080484b0 <v_Or>:
 80484b0:	bb 01 20 00 00       	mov    $0x2001,%ebx
 80484b5:	81 e3 ff ff ff 7f    	and    $0x7fffffff,%ebx
 80484bb:	89 d9                	mov    %ebx,%ecx
 80484bd:	81 e1 ff ff ff 0f    	and    $0xfffffff,%ecx
 80484c3:	8b 04 8d 68 9d 04 08 	mov    0x8049d68(,%ecx,4),%eax
 80484ca:	bb 02 20 00 00       	mov    $0x2002,%ebx
 80484cf:	81 e3 ff ff ff 7f    	and    $0x7fffffff,%ebx
 80484d5:	89 d9                	mov    %ebx,%ecx
 80484d7:	81 e1 ff ff ff 0f    	and    $0xfffffff,%ecx
 80484dd:	8b 1c 8d 68 9d 04 08 	mov    0x8049d68(,%ecx,4),%ebx
 80484e4:	09 d8                	or     %ebx,%eax
 80484e6:	bb 01 20 00 00       	mov    $0x2001,%ebx
 80484eb:	81 e3 ff ff ff 7f    	and    $0x7fffffff,%ebx
 80484f1:	89 d9                	mov    %ebx,%ecx
 80484f3:	81 e1 ff ff ff 0f    	and    $0xfffffff,%ecx
 80484f9:	89 04 8d 68 9d 04 08 	mov    %eax,0x8049d68(,%ecx,4)
 8048500:	e9 cb fb ff ff       	jmp    80480d0 <nexti>

08048505 <v_Xor>:
 8048505:	bb 01 20 00 00       	mov    $0x2001,%ebx
 804850a:	81 e3 ff ff ff 7f    	and    $0x7fffffff,%ebx
 8048510:	89 d9                	mov    %ebx,%ecx
 8048512:	81 e1 ff ff ff 0f    	and    $0xfffffff,%ecx
 8048518:	8b 04 8d 68 9d 04 08 	mov    0x8049d68(,%ecx,4),%eax
 804851f:	bb 02 20 00 00       	mov    $0x2002,%ebx
 8048524:	81 e3 ff ff ff 7f    	and    $0x7fffffff,%ebx
 804852a:	89 d9                	mov    %ebx,%ecx
 804852c:	81 e1 ff ff ff 0f    	and    $0xfffffff,%ecx
 8048532:	8b 1c 8d 68 9d 04 08 	mov    0x8049d68(,%ecx,4),%ebx
 8048539:	31 d8                	xor    %ebx,%eax
 804853b:	bb 01 20 00 00       	mov    $0x2001,%ebx
 8048540:	81 e3 ff ff ff 7f    	and    $0x7fffffff,%ebx
 8048546:	89 d9                	mov    %ebx,%ecx
 8048548:	81 e1 ff ff ff 0f    	and    $0xfffffff,%ecx
 804854e:	89 04 8d 68 9d 04 08 	mov    %eax,0x8049d68(,%ecx,4)
 8048555:	e9 76 fb ff ff       	jmp    80480d0 <nexti>

0804855a <v_Shl>:
 804855a:	bb 01 20 00 00       	mov    $0x2001,%ebx
 804855f:	81 e3 ff ff ff 7f    	and    $0x7fffffff,%ebx
 8048565:	89 d9                	mov    %ebx,%ecx
 8048567:	81 e1 ff ff ff 0f    	and    $0xfffffff,%ecx
 804856d:	8b 04 8d 68 9d 04 08 	mov    0x8049d68(,%ecx,4),%eax
 8048574:	bb 02 20 00 00       	mov    $0x2002,%ebx
 8048579:	81 e3 ff ff ff 7f    	and    $0x7fffffff,%ebx
 804857f:	89 d9                	mov    %ebx,%ecx
 8048581:	81 e1 ff ff ff 0f    	and    $0xfffffff,%ecx
 8048587:	8b 1c 8d 68 9d 04 08 	mov    0x8049d68(,%ecx,4),%ebx
 804858e:	89 d9                	mov    %ebx,%ecx
 8048590:	83 e1 1f             	and    $0x1f,%ecx
 8048593:	d3 e0                	shl    %cl,%eax
 8048595:	bb 01 20 00 00       	mov    $0x2001,%ebx
 804859a:	81 e3 ff ff ff 7f    	and    $0x7fffffff,%ebx
 80485a0:	89 d9                	mov    %ebx,%ecx
 80485a2:	81 e1 ff ff ff 0f    	and    $0xfffffff,%ecx
 80485a8:	89 04 8d 68 9d 04 08 	mov    %eax,0x8049d68(,%ecx,4)
 80485af:	e9 1c fb ff ff       	jmp    80480d0 <nexti>

080485b4 <v_Shr>:
 80485b4:	bb 01 20 00 00       	mov    $0x2001,%ebx
 80485b9:	81 e3 ff ff ff 7f    	and    $0x7fffffff,%ebx
 80485bf:	89 d9                	mov    %ebx,%ecx
 80485c1:	81 e1 ff ff ff 0f    	and    $0xfffffff,%ecx
 80485c7:	8b 04 8d 68 9d 04 08 	mov    0x8049d68(,%ecx,4),%eax
 80485ce:	bb 02 20 00 00       	mov    $0x2002,%ebx
 80485d3:	81 e3 ff ff ff 7f    	and    $0x7fffffff,%ebx
 80485d9:	89 d9                	mov    %ebx,%ecx
 80485db:	81 e1 ff ff ff 0f    	and    $0xfffffff,%ecx
 80485e1:	8b 1c 8d 68 9d 04 08 	mov    0x8049d68(,%ecx,4),%ebx
 80485e8:	89 d9                	mov    %ebx,%ecx
 80485ea:	83 e1 1f             	and    $0x1f,%ecx
 80485ed:	d3 e8                	shr    %cl,%eax
 80485ef:	bb 01 20 00 00       	mov    $0x2001,%ebx
 80485f4:	81 e3 ff ff ff 7f    	and    $0x7fffffff,%ebx
 80485fa:	89 d9                	mov    %ebx,%ecx
 80485fc:	81 e1 ff ff ff 0f    	and    $0xfffffff,%ecx
 8048602:	89 04 8d 68 9d 04 08 	mov    %eax,0x8049d68(,%ecx,4)
 8048609:	e9 c2 fa ff ff       	jmp    80480d0 <nexti>

0804860e <v_Get>:
 804860e:	bb 02 20 00 00       	mov    $0x2002,%ebx
 8048613:	81 e3 ff ff ff 7f    	and    $0x7fffffff,%ebx
 8048619:	89 d9                	mov    %ebx,%ecx
 804861b:	81 e1 ff ff ff 0f    	and    $0xfffffff,%ecx
 8048621:	8b 04 8d 68 9d 04 08 	mov    0x8049d68(,%ecx,4),%eax
 8048628:	bb ff 0f 00 00       	mov    $0xfff,%ebx
 804862d:	81 e3 ff ff ff 7f    	and    $0x7fffffff,%ebx
 8048633:	21 d8                	and    %ebx,%eax
 8048635:	bb 00 10 00 00       	mov    $0x1000,%ebx
 804863a:	81 e3 ff ff ff 7f    	and    $0x7fffffff,%ebx
 8048640:	01 d8                	add    %ebx,%eax
 8048642:	89 c3                	mov    %eax,%ebx
 8048644:	89 d9                	mov    %ebx,%ecx
 8048646:	81 e1 ff ff ff 0f    	and    $0xfffffff,%ecx
 804864c:	8b 04 8d 68 9d 04 08 	mov    0x8049d68(,%ecx,4),%eax
 8048653:	bb 01 20 00 00       	mov    $0x2001,%ebx
 8048658:	81 e3 ff ff ff 7f    	and    $0x7fffffff,%ebx
 804865e:	89 d9                	mov    %ebx,%ecx
 8048660:	81 e1 ff ff ff 0f    	and    $0xfffffff,%ecx
 8048666:	89 04 8d 68 9d 04 08 	mov    %eax,0x8049d68(,%ecx,4)
 804866d:	e9 5e fa ff ff       	jmp    80480d0 <nexti>

08048672 <v_Put>:
 8048672:	bb 02 20 00 00       	mov    $0x2002,%ebx
 8048677:	81 e3 ff ff ff 7f    	and    $0x7fffffff,%ebx
 804867d:	89 d9                	mov    %ebx,%ecx
 804867f:	81 e1 ff ff ff 0f    	and    $0xfffffff,%ecx
 8048685:	8b 04 8d 68 9d 04 08 	mov    0x8049d68(,%ecx,4),%eax
 804868c:	bb ff 0f 00 00       	mov    $0xfff,%ebx
 8048691:	81 e3 ff ff ff 7f    	and    $0x7fffffff,%ebx
 8048697:	21 d8                	and    %ebx,%eax
 8048699:	bb 00 10 00 00       	mov    $0x1000,%ebx
 804869e:	81 e3 ff ff ff 7f    	and    $0x7fffffff,%ebx
 80486a4:	01 d8                	add    %ebx,%eax
 80486a6:	bb 01 20 00 00       	mov    $0x2001,%ebx
 80486ab:	81 e3 ff ff ff 7f    	and    $0x7fffffff,%ebx
 80486b1:	89 d9                	mov    %ebx,%ecx
 80486b3:	81 e1 ff ff ff 0f    	and    $0xfffffff,%ecx
 80486b9:	8b 1c 8d 68 9d 04 08 	mov    0x8049d68(,%ecx,4),%ebx
 80486c0:	89 c1                	mov    %eax,%ecx
 80486c2:	89 d8                	mov    %ebx,%eax
 80486c4:	89 cb                	mov    %ecx,%ebx
 80486c6:	89 d9                	mov    %ebx,%ecx
 80486c8:	81 e1 ff ff ff 0f    	and    $0xfffffff,%ecx
 80486ce:	89 04 8d 68 9d 04 08 	mov    %eax,0x8049d68(,%ecx,4)
 80486d5:	e9 f6 f9 ff ff       	jmp    80480d0 <nexti>

080486da <v_At>:
 80486da:	bb 02 20 00 00       	mov    $0x2002,%ebx
 80486df:	81 e3 ff ff ff 7f    	and    $0x7fffffff,%ebx
 80486e5:	89 d9                	mov    %ebx,%ecx
 80486e7:	81 e1 ff ff ff 0f    	and    $0xfffffff,%ecx
 80486ed:	8b 04 8d 68 9d 04 08 	mov    0x8049d68(,%ecx,4),%eax
 80486f4:	bb ff 0f 00 00       	mov    $0xfff,%ebx
 80486f9:	81 e3 ff ff ff 7f    	and    $0x7fffffff,%ebx
 80486ff:	21 d8                	and    %ebx,%eax
 8048701:	bb 00 10 00 00       	mov    $0x1000,%ebx
 8048706:	81 e3 ff ff ff 7f    	and    $0x7fffffff,%ebx
 804870c:	01 d8                	add    %ebx,%eax
 804870e:	89 c3                	mov    %eax,%ebx
 8048710:	89 d9                	mov    %ebx,%ecx
 8048712:	81 e1 ff ff ff 0f    	and    $0xfffffff,%ecx
 8048718:	8b 04 8d 68 9d 04 08 	mov    0x8049d68(,%ecx,4),%eax
 804871f:	bb 02 20 00 00       	mov    $0x2002,%ebx
 8048724:	81 e3 ff ff ff 7f    	and    $0x7fffffff,%ebx
 804872a:	89 d9                	mov    %ebx,%ecx
 804872c:	81 e1 ff ff ff 0f    	and    $0xfffffff,%ecx
 8048732:	89 04 8d 68 9d 04 08 	mov    %eax,0x8049d68(,%ecx,4)
 8048739:	e9 92 f9 ff ff       	jmp    80480d0 <nexti>

0804873e <v_Inc>:
 804873e:	bb 02 20 00 00       	mov    $0x2002,%ebx
 8048743:	81 e3 ff ff ff 7f    	and    $0x7fffffff,%ebx
 8048749:	89 d9                	mov    %ebx,%ecx
 804874b:	81 e1 ff ff ff 0f    	and    $0xfffffff,%ecx
 8048751:	8b 1c 8d 68 9d 04 08 	mov    0x8049d68(,%ecx,4),%ebx
 8048758:	43                   	inc    %ebx
 8048759:	89 d8                	mov    %ebx,%eax
 804875b:	bb 02 20 00 00       	mov    $0x2002,%ebx
 8048760:	81 e3 ff ff ff 7f    	and    $0x7fffffff,%ebx
 8048766:	89 d9                	mov    %ebx,%ecx
 8048768:	81 e1 ff ff ff 0f    	and    $0xfffffff,%ecx
 804876e:	89 04 8d 68 9d 04 08 	mov    %eax,0x8049d68(,%ecx,4)
 8048775:	e9 56 f9 ff ff       	jmp    80480d0 <nexti>

0804877a <v_Dec>:
 804877a:	bb 02 20 00 00       	mov    $0x2002,%ebx
 804877f:	81 e3 ff ff ff 7f    	and    $0x7fffffff,%ebx
 8048785:	89 d9                	mov    %ebx,%ecx
 8048787:	81 e1 ff ff ff 0f    	and    $0xfffffff,%ecx
 804878d:	8b 1c 8d 68 9d 04 08 	mov    0x8049d68(,%ecx,4),%ebx
 8048794:	4b                   	dec    %ebx
 8048795:	89 d8                	mov    %ebx,%eax
 8048797:	bb 02 20 00 00       	mov    $0x2002,%ebx
 804879c:	81 e3 ff ff ff 7f    	and    $0x7fffffff,%ebx
 80487a2:	89 d9                	mov    %ebx,%ecx
 80487a4:	81 e1 ff ff ff 0f    	and    $0xfffffff,%ecx
 80487aa:	89 04 8d 68 9d 04 08 	mov    %eax,0x8049d68(,%ecx,4)
 80487b1:	e9 1a f9 ff ff       	jmp    80480d0 <nexti>

080487b6 <v_Imm>:
 80487b6:	89 d0                	mov    %edx,%eax
 80487b8:	bb 00 00 00 00       	mov    $0x0,%ebx
 80487bd:	81 e3 ff ff ff 7f    	and    $0x7fffffff,%ebx
 80487c3:	81 f3 00 00 00 80    	xor    $0x80000000,%ebx
 80487c9:	31 d8                	xor    %ebx,%eax
 80487cb:	bb 02 20 00 00       	mov    $0x2002,%ebx
 80487d0:	81 e3 ff ff ff 7f    	and    $0x7fffffff,%ebx
 80487d6:	89 d9                	mov    %ebx,%ecx
 80487d8:	81 e1 ff ff ff 0f    	and    $0xfffffff,%ecx
 80487de:	89 04 8d 68 9d 04 08 	mov    %eax,0x8049d68(,%ecx,4)
 80487e5:	e9 e6 f8 ff ff       	jmp    80480d0 <nexti>

080487ea <v_Flip>:
 80487ea:	bb 02 20 00 00       	mov    $0x2002,%ebx
 80487ef:	81 e3 ff ff ff 7f    	and    $0x7fffffff,%ebx
 80487f5:	89 d9                	mov    %ebx,%ecx
 80487f7:	81 e1 ff ff ff 0f    	and    $0xfffffff,%ecx
 80487fd:	8b 1c 8d 68 9d 04 08 	mov    0x8049d68(,%ecx,4),%ebx
 8048804:	81 f3 00 00 00 80    	xor    $0x80000000,%ebx
 804880a:	bb 02 20 00 00       	mov    $0x2002,%ebx
 804880f:	81 e3 ff ff ff 7f    	and    $0x7fffffff,%ebx
 8048815:	89 d9                	mov    %ebx,%ecx
 8048817:	81 e1 ff ff ff 0f    	and    $0xfffffff,%ecx
 804881d:	89 04 8d 68 9d 04 08 	mov    %eax,0x8049d68(,%ecx,4)
 8048824:	e9 a7 f8 ff ff       	jmp    80480d0 <nexti>

08048829 <v_Swap>:
 8048829:	bb 01 20 00 00       	mov    $0x2001,%ebx
 804882e:	81 e3 ff ff ff 7f    	and    $0x7fffffff,%ebx
 8048834:	89 d9                	mov    %ebx,%ecx
 8048836:	81 e1 ff ff ff 0f    	and    $0xfffffff,%ecx
 804883c:	8b 04 8d 68 9d 04 08 	mov    0x8049d68(,%ecx,4),%eax
 8048843:	bb 02 20 00 00       	mov    $0x2002,%ebx
 8048848:	81 e3 ff ff ff 7f    	and    $0x7fffffff,%ebx
 804884e:	89 d9                	mov    %ebx,%ecx
 8048850:	81 e1 ff ff ff 0f    	and    $0xfffffff,%ecx
 8048856:	89 04 8d 68 9d 04 08 	mov    %eax,0x8049d68(,%ecx,4)
 804885d:	89 c1                	mov    %eax,%ecx
 804885f:	89 d8                	mov    %ebx,%eax
 8048861:	89 cb                	mov    %ecx,%ebx
 8048863:	bb 02 20 00 00       	mov    $0x2002,%ebx
 8048868:	81 e3 ff ff ff 7f    	and    $0x7fffffff,%ebx
 804886e:	89 d9                	mov    %ebx,%ecx
 8048870:	81 e1 ff ff ff 0f    	and    $0xfffffff,%ecx
 8048876:	8b 04 8d 68 9d 04 08 	mov    0x8049d68(,%ecx,4),%eax
 804887d:	bb 01 20 00 00       	mov    $0x2001,%ebx
 8048882:	81 e3 ff ff ff 7f    	and    $0x7fffffff,%ebx
 8048888:	89 d9                	mov    %ebx,%ecx
 804888a:	81 e1 ff ff ff 0f    	and    $0xfffffff,%ecx
 8048890:	89 04 8d 68 9d 04 08 	mov    %eax,0x8049d68(,%ecx,4)
 8048897:	e9 34 f8 ff ff       	jmp    80480d0 <nexti>

0804889c <v_Tob>:
 804889c:	bb 01 20 00 00       	mov    $0x2001,%ebx
 80488a1:	81 e3 ff ff ff 7f    	and    $0x7fffffff,%ebx
 80488a7:	89 d9                	mov    %ebx,%ecx
 80488a9:	81 e1 ff ff ff 0f    	and    $0xfffffff,%ecx
 80488af:	8b 04 8d 68 9d 04 08 	mov    0x8049d68(,%ecx,4),%eax
 80488b6:	bb 02 20 00 00       	mov    $0x2002,%ebx
 80488bb:	81 e3 ff ff ff 7f    	and    $0x7fffffff,%ebx
 80488c1:	89 d9                	mov    %ebx,%ecx
 80488c3:	81 e1 ff ff ff 0f    	and    $0xfffffff,%ecx
 80488c9:	89 04 8d 68 9d 04 08 	mov    %eax,0x8049d68(,%ecx,4)
 80488d0:	e9 fb f7 ff ff       	jmp    80480d0 <nexti>

080488d5 <v_Tor>:
 80488d5:	bb 01 20 00 00       	mov    $0x2001,%ebx
 80488da:	81 e3 ff ff ff 7f    	and    $0x7fffffff,%ebx
 80488e0:	89 d9                	mov    %ebx,%ecx
 80488e2:	81 e1 ff ff ff 0f    	and    $0xfffffff,%ecx
 80488e8:	8b 04 8d 68 9d 04 08 	mov    0x8049d68(,%ecx,4),%eax
 80488ef:	bb 05 20 00 00       	mov    $0x2005,%ebx
 80488f4:	81 e3 ff ff ff 7f    	and    $0x7fffffff,%ebx
 80488fa:	89 d9                	mov    %ebx,%ecx
 80488fc:	81 e1 ff ff ff 0f    	and    $0xfffffff,%ecx
 8048902:	89 04 8d 68 9d 04 08 	mov    %eax,0x8049d68(,%ecx,4)
 8048909:	e9 c2 f7 ff ff       	jmp    80480d0 <nexti>

0804890e <v_Tot>:
 804890e:	bb 01 20 00 00       	mov    $0x2001,%ebx
 8048913:	81 e3 ff ff ff 7f    	and    $0x7fffffff,%ebx
 8048919:	89 d9                	mov    %ebx,%ecx
 804891b:	81 e1 ff ff ff 0f    	and    $0xfffffff,%ecx
 8048921:	8b 04 8d 68 9d 04 08 	mov    0x8049d68(,%ecx,4),%eax
 8048928:	bb 04 20 00 00       	mov    $0x2004,%ebx
 804892d:	81 e3 ff ff ff 7f    	and    $0x7fffffff,%ebx
 8048933:	89 d9                	mov    %ebx,%ecx
 8048935:	81 e1 ff ff ff 0f    	and    $0xfffffff,%ecx
 804893b:	89 04 8d 68 9d 04 08 	mov    %eax,0x8049d68(,%ecx,4)
 8048942:	e9 89 f7 ff ff       	jmp    80480d0 <nexti>

08048947 <v_Fromb>:
 8048947:	bb 02 20 00 00       	mov    $0x2002,%ebx
 804894c:	81 e3 ff ff ff 7f    	and    $0x7fffffff,%ebx
 8048952:	89 d9                	mov    %ebx,%ecx
 8048954:	81 e1 ff ff ff 0f    	and    $0xfffffff,%ecx
 804895a:	8b 04 8d 68 9d 04 08 	mov    0x8049d68(,%ecx,4),%eax
 8048961:	bb 01 20 00 00       	mov    $0x2001,%ebx
 8048966:	81 e3 ff ff ff 7f    	and    $0x7fffffff,%ebx
 804896c:	89 d9                	mov    %ebx,%ecx
 804896e:	81 e1 ff ff ff 0f    	and    $0xfffffff,%ecx
 8048974:	89 04 8d 68 9d 04 08 	mov    %eax,0x8049d68(,%ecx,4)
 804897b:	e9 50 f7 ff ff       	jmp    80480d0 <nexti>

08048980 <v_Fromr>:
 8048980:	bb 05 20 00 00       	mov    $0x2005,%ebx
 8048985:	81 e3 ff ff ff 7f    	and    $0x7fffffff,%ebx
 804898b:	89 d9                	mov    %ebx,%ecx
 804898d:	81 e1 ff ff ff 0f    	and    $0xfffffff,%ecx
 8048993:	8b 04 8d 68 9d 04 08 	mov    0x8049d68(,%ecx,4),%eax
 804899a:	bb 01 20 00 00       	mov    $0x2001,%ebx
 804899f:	81 e3 ff ff ff 7f    	and    $0x7fffffff,%ebx
 80489a5:	89 d9                	mov    %ebx,%ecx
 80489a7:	81 e1 ff ff ff 0f    	and    $0xfffffff,%ecx
 80489ad:	89 04 8d 68 9d 04 08 	mov    %eax,0x8049d68(,%ecx,4)
 80489b4:	e9 17 f7 ff ff       	jmp    80480d0 <nexti>

080489b9 <v_Fromt>:
 80489b9:	bb 04 20 00 00       	mov    $0x2004,%ebx
 80489be:	81 e3 ff ff ff 7f    	and    $0x7fffffff,%ebx
 80489c4:	89 d9                	mov    %ebx,%ecx
 80489c6:	81 e1 ff ff ff 0f    	and    $0xfffffff,%ecx
 80489cc:	8b 04 8d 68 9d 04 08 	mov    0x8049d68(,%ecx,4),%eax
 80489d3:	bb 01 20 00 00       	mov    $0x2001,%ebx
 80489d8:	81 e3 ff ff ff 7f    	and    $0x7fffffff,%ebx
 80489de:	89 d9                	mov    %ebx,%ecx
 80489e0:	81 e1 ff ff ff 0f    	and    $0xfffffff,%ecx
 80489e6:	89 04 8d 68 9d 04 08 	mov    %eax,0x8049d68(,%ecx,4)
 80489ed:	e9 de f6 ff ff       	jmp    80480d0 <nexti>

080489f2 <v_Mdm>:
 80489f2:	bb 00 10 00 00       	mov    $0x1000,%ebx
 80489f7:	81 e3 ff ff ff 7f    	and    $0x7fffffff,%ebx
 80489fd:	89 d8                	mov    %ebx,%eax
 80489ff:	bb 01 20 00 00       	mov    $0x2001,%ebx
 8048a04:	81 e3 ff ff ff 7f    	and    $0x7fffffff,%ebx
 8048a0a:	89 d9                	mov    %ebx,%ecx
 8048a0c:	81 e1 ff ff ff 0f    	and    $0xfffffff,%ecx
 8048a12:	89 04 8d 68 9d 04 08 	mov    %eax,0x8049d68(,%ecx,4)
 8048a19:	e9 b2 f6 ff ff       	jmp    80480d0 <nexti>

08048a1e <v_Noop>:
 8048a1e:	e9 ad f6 ff ff       	jmp    80480d0 <nexti>

08048a23 <v_Jmpe>:
 8048a23:	bb 01 20 00 00       	mov    $0x2001,%ebx
 8048a28:	81 e3 ff ff ff 7f    	and    $0x7fffffff,%ebx
 8048a2e:	89 d9                	mov    %ebx,%ecx
 8048a30:	81 e1 ff ff ff 0f    	and    $0xfffffff,%ecx
 8048a36:	8b 04 8d 68 9d 04 08 	mov    0x8049d68(,%ecx,4),%eax
 8048a3d:	39 d8                	cmp    %ebx,%eax
 8048a3f:	75 02                	jne    8048a43 <v_Jmpe+0x20>
 8048a41:	eb 05                	jmp    8048a48 <v_Jmpe_do>
 8048a43:	e9 88 f6 ff ff       	jmp    80480d0 <nexti>

08048a48 <v_Jmpe_do>:
 8048a48:	89 d0                	mov    %edx,%eax
 8048a4a:	bb ff ff ff 00       	mov    $0xffffff,%ebx
 8048a4f:	81 e3 ff ff ff 7f    	and    $0x7fffffff,%ebx
 8048a55:	21 d8                	and    %ebx,%eax
 8048a57:	bb 00 20 00 00       	mov    $0x2000,%ebx
 8048a5c:	81 e3 ff ff ff 7f    	and    $0x7fffffff,%ebx
 8048a62:	89 d9                	mov    %ebx,%ecx
 8048a64:	81 e1 ff ff ff 0f    	and    $0xfffffff,%ecx
 8048a6a:	89 04 8d 68 9d 04 08 	mov    %eax,0x8049d68(,%ecx,4)
 8048a71:	e9 5a f6 ff ff       	jmp    80480d0 <nexti>

08048a76 <v_Jump>:
 8048a76:	89 d0                	mov    %edx,%eax
 8048a78:	bb ff ff ff 00       	mov    $0xffffff,%ebx
 8048a7d:	81 e3 ff ff ff 7f    	and    $0x7fffffff,%ebx
 8048a83:	21 d8                	and    %ebx,%eax
 8048a85:	bb 00 20 00 00       	mov    $0x2000,%ebx
 8048a8a:	81 e3 ff ff ff 7f    	and    $0x7fffffff,%ebx
 8048a90:	89 d9                	mov    %ebx,%ecx
 8048a92:	81 e1 ff ff ff 0f    	and    $0xfffffff,%ecx
 8048a98:	89 04 8d 68 9d 04 08 	mov    %eax,0x8049d68(,%ecx,4)
 8048a9f:	e9 2c f6 ff ff       	jmp    80480d0 <nexti>

08048aa4 <v_Br>:
 8048aa4:	bb 00 20 00 00       	mov    $0x2000,%ebx
 8048aa9:	81 e3 ff ff ff 7f    	and    $0x7fffffff,%ebx
 8048aaf:	89 d9                	mov    %ebx,%ecx
 8048ab1:	81 e1 ff ff ff 0f    	and    $0xfffffff,%ecx
 8048ab7:	8b 04 8d 68 9d 04 08 	mov    0x8049d68(,%ecx,4),%eax
 8048abe:	bb 03 20 00 00       	mov    $0x2003,%ebx
 8048ac3:	81 e3 ff ff ff 7f    	and    $0x7fffffff,%ebx
 8048ac9:	89 d9                	mov    %ebx,%ecx
 8048acb:	81 e1 ff ff ff 0f    	and    $0xfffffff,%ecx
 8048ad1:	89 04 8d 68 9d 04 08 	mov    %eax,0x8049d68(,%ecx,4)
 8048ad8:	89 d0                	mov    %edx,%eax
 8048ada:	bb ff ff ff 00       	mov    $0xffffff,%ebx
 8048adf:	81 e3 ff ff ff 7f    	and    $0x7fffffff,%ebx
 8048ae5:	21 d8                	and    %ebx,%eax
 8048ae7:	bb 00 20 00 00       	mov    $0x2000,%ebx
 8048aec:	81 e3 ff ff ff 7f    	and    $0x7fffffff,%ebx
 8048af2:	89 d9                	mov    %ebx,%ecx
 8048af4:	81 e1 ff ff ff 0f    	and    $0xfffffff,%ecx
 8048afa:	89 04 8d 68 9d 04 08 	mov    %eax,0x8049d68(,%ecx,4)
 8048b01:	e9 ca f5 ff ff       	jmp    80480d0 <nexti>

08048b06 <v_Link>:
 8048b06:	bb 03 20 00 00       	mov    $0x2003,%ebx
 8048b0b:	81 e3 ff ff ff 7f    	and    $0x7fffffff,%ebx
 8048b11:	89 d9                	mov    %ebx,%ecx
 8048b13:	81 e1 ff ff ff 0f    	and    $0xfffffff,%ecx
 8048b19:	8b 04 8d 68 9d 04 08 	mov    0x8049d68(,%ecx,4),%eax
 8048b20:	bb 00 20 00 00       	mov    $0x2000,%ebx
 8048b25:	81 e3 ff ff ff 7f    	and    $0x7fffffff,%ebx
 8048b2b:	89 d9                	mov    %ebx,%ecx
 8048b2d:	81 e1 ff ff ff 0f    	and    $0xfffffff,%ecx
 8048b33:	89 04 8d 68 9d 04 08 	mov    %eax,0x8049d68(,%ecx,4)
 8048b3a:	e9 91 f5 ff ff       	jmp    80480d0 <nexti>

08048b3f <v_Rpt>:
 8048b3f:	bb 05 20 00 00       	mov    $0x2005,%ebx
 8048b44:	81 e3 ff ff ff 7f    	and    $0x7fffffff,%ebx
 8048b4a:	89 d9                	mov    %ebx,%ecx
 8048b4c:	81 e1 ff ff ff 0f    	and    $0xfffffff,%ecx
 8048b52:	8b 1c 8d 68 9d 04 08 	mov    0x8049d68(,%ecx,4),%ebx
 8048b59:	4b                   	dec    %ebx
 8048b5a:	89 d8                	mov    %ebx,%eax
 8048b5c:	bb 05 20 00 00       	mov    $0x2005,%ebx
 8048b61:	81 e3 ff ff ff 7f    	and    $0x7fffffff,%ebx
 8048b67:	89 d9                	mov    %ebx,%ecx
 8048b69:	81 e1 ff ff ff 0f    	and    $0xfffffff,%ecx
 8048b6f:	89 04 8d 68 9d 04 08 	mov    %eax,0x8049d68(,%ecx,4)
 8048b76:	bb 00 00 00 00       	mov    $0x0,%ebx
 8048b7b:	81 e3 ff ff ff 7f    	and    $0x7fffffff,%ebx
 8048b81:	4b                   	dec    %ebx
 8048b82:	39 d8                	cmp    %ebx,%eax
 8048b84:	75 02                	jne    8048b88 <v_Rpt+0x49>
 8048b86:	eb 29                	jmp    8048bb1 <v_Repeat_end>
 8048b88:	89 d0                	mov    %edx,%eax
 8048b8a:	bb ff ff ff 00       	mov    $0xffffff,%ebx
 8048b8f:	81 e3 ff ff ff 7f    	and    $0x7fffffff,%ebx
 8048b95:	21 d8                	and    %ebx,%eax
 8048b97:	bb 00 20 00 00       	mov    $0x2000,%ebx
 8048b9c:	81 e3 ff ff ff 7f    	and    $0x7fffffff,%ebx
 8048ba2:	89 d9                	mov    %ebx,%ecx
 8048ba4:	81 e1 ff ff ff 0f    	and    $0xfffffff,%ecx
 8048baa:	89 04 8d 68 9d 04 08 	mov    %eax,0x8049d68(,%ecx,4)

08048bb1 <v_Repeat_end>:
 8048bb1:	e9 1a f5 ff ff       	jmp    80480d0 <nexti>

08048bb6 <v_Halt>:
 8048bb6:	bb 01 20 00 00       	mov    $0x2001,%ebx
 8048bbb:	81 e3 ff ff ff 7f    	and    $0x7fffffff,%ebx
 8048bc1:	89 d9                	mov    %ebx,%ecx
 8048bc3:	81 e1 ff ff ff 0f    	and    $0xfffffff,%ecx
 8048bc9:	8b 04 8d 68 9d 04 08 	mov    0x8049d68(,%ecx,4),%eax
 8048bd0:	bb ff 00 00 00       	mov    $0xff,%ebx
 8048bd5:	81 e3 ff ff ff 7f    	and    $0x7fffffff,%ebx
 8048bdb:	21 d8                	and    %ebx,%eax
 8048bdd:	25 ff 00 00 00       	and    $0xff,%eax
 8048be2:	89 c3                	mov    %eax,%ebx
 8048be4:	b8 01 00 00 00       	mov    $0x1,%eax
 8048be9:	cd 80                	int    $0x80

08048beb <program>:
 8048beb:	bb 00 00 00 00       	mov    $0x0,%ebx
 8048bf0:	81 e3 ff ff ff 7f    	and    $0x7fffffff,%ebx
 8048bf6:	89 d8                	mov    %ebx,%eax
 8048bf8:	bb 03 00 00 00       	mov    $0x3,%ebx
 8048bfd:	81 e3 ff ff ff 7f    	and    $0x7fffffff,%ebx
 8048c03:	81 f3 00 00 00 80    	xor    $0x80000000,%ebx
 8048c09:	8d 3d 14 8c 04 08    	lea    0x8048c14,%edi
 8048c0f:	e9 c2 00 00 00       	jmp    8048cd6 <si>
 8048c14:	bb 00 00 00 01       	mov    $0x1000000,%ebx
 8048c19:	81 e3 ff ff ff 7f    	and    $0x7fffffff,%ebx
 8048c1f:	8d 3d 2a 8c 04 08    	lea    0x8048c2a,%edi
 8048c25:	e9 ac 00 00 00       	jmp    8048cd6 <si>
 8048c2a:	bb 05 00 00 00       	mov    $0x5,%ebx
 8048c2f:	81 e3 ff ff ff 7f    	and    $0x7fffffff,%ebx
 8048c35:	81 f3 00 00 00 80    	xor    $0x80000000,%ebx
 8048c3b:	8d 3d 46 8c 04 08    	lea    0x8048c46,%edi
 8048c41:	e9 90 00 00 00       	jmp    8048cd6 <si>
 8048c46:	bb 00 00 00 01       	mov    $0x1000000,%ebx
 8048c4b:	81 e3 ff ff ff 7f    	and    $0x7fffffff,%ebx
 8048c51:	8d 3d 59 8c 04 08    	lea    0x8048c59,%edi
 8048c57:	eb 7d                	jmp    8048cd6 <si>
 8048c59:	bb 00 00 00 10       	mov    $0x10000000,%ebx
 8048c5e:	81 e3 ff ff ff 7f    	and    $0x7fffffff,%ebx
 8048c64:	81 f3 00 00 00 80    	xor    $0x80000000,%ebx
 8048c6a:	8d 3d 72 8c 04 08    	lea    0x8048c72,%edi
 8048c70:	eb 64                	jmp    8048cd6 <si>
 8048c72:	bb 00 00 00 33       	mov    $0x33000000,%ebx
 8048c77:	81 e3 ff ff ff 7f    	and    $0x7fffffff,%ebx
 8048c7d:	8d 3d 85 8c 04 08    	lea    0x8048c85,%edi
 8048c83:	eb 51                	jmp    8048cd6 <si>
 8048c85:	bb 00 00 00 31       	mov    $0x31000000,%ebx
 8048c8a:	81 e3 ff ff ff 7f    	and    $0x7fffffff,%ebx
 8048c90:	8d 3d 98 8c 04 08    	lea    0x8048c98,%edi
 8048c96:	eb 3e                	jmp    8048cd6 <si>
 8048c98:	bb 00 00 00 00       	mov    $0x0,%ebx
 8048c9d:	81 e3 ff ff ff 7f    	and    $0x7fffffff,%ebx
 8048ca3:	8d 3d ab 8c 04 08    	lea    0x8048cab,%edi
 8048ca9:	eb 2b                	jmp    8048cd6 <si>
 8048cab:	bb 07 00 00 50       	mov    $0x50000007,%ebx
 8048cb0:	81 e3 ff ff ff 7f    	and    $0x7fffffff,%ebx
 8048cb6:	8d 3d be 8c 04 08    	lea    0x8048cbe,%edi
 8048cbc:	eb 18                	jmp    8048cd6 <si>
 8048cbe:	bb 00 00 00 3f       	mov    $0x3f000000,%ebx
 8048cc3:	81 e3 ff ff ff 7f    	and    $0x7fffffff,%ebx
 8048cc9:	8d 3d d1 8c 04 08    	lea    0x8048cd1,%edi
 8048ccf:	eb 05                	jmp    8048cd6 <si>
 8048cd1:	e9 fa f3 ff ff       	jmp    80480d0 <nexti>

08048cd6 <si>:
 8048cd6:	89 c1                	mov    %eax,%ecx
 8048cd8:	89 d8                	mov    %ebx,%eax
 8048cda:	89 cb                	mov    %ecx,%ebx
 8048cdc:	89 d9                	mov    %ebx,%ecx
 8048cde:	81 e1 ff ff ff 0f    	and    $0xfffffff,%ecx
 8048ce4:	89 04 8d 68 9d 04 08 	mov    %eax,0x8049d68(,%ecx,4)
 8048ceb:	43                   	inc    %ebx
 8048cec:	89 d8                	mov    %ebx,%eax
 8048cee:	ff e7                	jmp    *%edi

08048cf0 <doFill>:
 8048cf0:	89 d9                	mov    %ebx,%ecx
 8048cf2:	81 e1 ff ff ff 0f    	and    $0xfffffff,%ecx
 8048cf8:	89 04 8d 68 9d 04 08 	mov    %eax,0x8049d68(,%ecx,4)
 8048cff:	43                   	inc    %ebx
 8048d00:	4e                   	dec    %esi
 8048d01:	83 fe ff             	cmp    $0xffffffff,%esi
 8048d04:	74 08                	je     8048d0e <doFill+0x1e>
 8048d06:	8d 0d f0 8c 04 08    	lea    0x8048cf0,%ecx
 8048d0c:	ff e1                	jmp    *%ecx
 8048d0e:	ff e7                	jmp    *%edi

08048d10 <setupToClearParent>:
 8048d10:	bb 00 00 00 10       	mov    $0x10000000,%ebx
 8048d15:	81 e3 ff ff ff 7f    	and    $0x7fffffff,%ebx
 8048d1b:	89 d8                	mov    %ebx,%eax
 8048d1d:	89 c6                	mov    %eax,%esi
 8048d1f:	bb 00 00 00 00       	mov    $0x0,%ebx
 8048d24:	81 e3 ff ff ff 7f    	and    $0x7fffffff,%ebx
 8048d2a:	89 d8                	mov    %ebx,%eax
 8048d2c:	ff e7                	jmp    *%edi

08048d2e <assertParentSize>:
 8048d2e:	b8 00 00 00 10       	mov    $0x10000000,%eax
 8048d33:	bb 00 00 00 10       	mov    $0x10000000,%ebx
 8048d38:	81 e3 ff ff ff 7f    	and    $0x7fffffff,%ebx
 8048d3e:	39 d8                	cmp    %ebx,%eax
 8048d40:	75 02                	jne    8048d44 <assertParentSize+0x16>
 8048d42:	eb 1b                	jmp    8048d5f <assertedParentSize>
 8048d44:	bb 01 00 00 00       	mov    $0x1,%ebx
 8048d49:	81 e3 ff ff ff 7f    	and    $0x7fffffff,%ebx
 8048d4f:	89 d8                	mov    %ebx,%eax
 8048d51:	25 ff 00 00 00       	and    $0xff,%eax
 8048d56:	89 c3                	mov    %eax,%ebx
 8048d58:	b8 01 00 00 00       	mov    $0x1,%eax
 8048d5d:	cd 80                	int    $0x80

08048d5f <assertedParentSize>:
 8048d5f:	ff e7                	jmp    *%edi
