
qmisc:     file format elf64-x86-64


Disassembly of section .text:

00000000004000b0 <vm_success>:
  4000b0:	b8 00 00 00 00       	mov    $0x0,%eax
  4000b5:	89 c3                	mov    %eax,%ebx
  4000b7:	b8 01 00 00 00       	mov    $0x1,%eax
  4000bc:	cd 80                	int    $0x80

00000000004000be <vm_failure>:
  4000be:	b8 01 00 00 00       	mov    $0x1,%eax
  4000c3:	89 c3                	mov    %eax,%ebx
  4000c5:	b8 01 00 00 00       	mov    $0x1,%eax
  4000ca:	cd 80                	int    $0x80

00000000004000cc <vm_illegal>:
  4000cc:	b8 02 00 00 00       	mov    $0x2,%eax
  4000d1:	89 c3                	mov    %eax,%ebx
  4000d3:	b8 01 00 00 00       	mov    $0x1,%eax
  4000d8:	cd 80                	int    $0x80

00000000004000da <_start>:
  4000da:	31 c0                	xor    %eax,%eax
  4000dc:	31 db                	xor    %ebx,%ebx
  4000de:	31 d2                	xor    %edx,%edx
  4000e0:	31 f6                	xor    %esi,%esi
  4000e2:	48 31 ff             	xor    %rdi,%rdi
  4000e5:	31 c9                	xor    %ecx,%ecx

00000000004000e7 <vm_init>:
  4000e7:	48 8d 3c 25 f4 00 40 	lea    0x4000f4,%rdi
  4000ee:	00 
  4000ef:	e9 e7 0c 00 00       	jmpq   400ddb <assertParentSize>
  4000f4:	48 8d 3c 25 01 01 40 	lea    0x400101,%rdi
  4000fb:	00 
  4000fc:	e9 bc 0c 00 00       	jmpq   400dbd <setupToClearParent>
  400101:	48 8d 3c 25 0e 01 40 	lea    0x40010e,%rdi
  400108:	00 
  400109:	e9 89 0c 00 00       	jmpq   400d97 <doFill>
  40010e:	e9 66 0b 00 00       	jmpq   400c79 <program>

0000000000400113 <nexti>:
  400113:	bb 00 20 00 00       	mov    $0x2000,%ebx
  400118:	81 e3 ff ff ff 7f    	and    $0x7fffffff,%ebx
  40011e:	89 d9                	mov    %ebx,%ecx
  400120:	81 e1 ff ff ff 0f    	and    $0xfffffff,%ecx
  400126:	67 8b 1c 8d 10 0e 60 	mov    0x600e10(,%ecx,4),%ebx
  40012d:	00 
  40012e:	ff c3                	inc    %ebx
  400130:	89 d8                	mov    %ebx,%eax
  400132:	bb ff 0f 00 00       	mov    $0xfff,%ebx
  400137:	81 e3 ff ff ff 7f    	and    $0x7fffffff,%ebx
  40013d:	21 d8                	and    %ebx,%eax
  40013f:	bb 00 20 00 00       	mov    $0x2000,%ebx
  400144:	81 e3 ff ff ff 7f    	and    $0x7fffffff,%ebx
  40014a:	89 d9                	mov    %ebx,%ecx
  40014c:	81 e1 ff ff ff 0f    	and    $0xfffffff,%ecx
  400152:	67 89 04 8d 10 0e 60 	mov    %eax,0x600e10(,%ecx,4)
  400159:	00 
  40015a:	89 c3                	mov    %eax,%ebx
  40015c:	ff cb                	dec    %ebx
  40015e:	89 d9                	mov    %ebx,%ecx
  400160:	81 e1 ff ff ff 0f    	and    $0xfffffff,%ecx
  400166:	67 8b 04 8d 10 0e 60 	mov    0x600e10(,%ecx,4),%eax
  40016d:	00 
  40016e:	89 c2                	mov    %eax,%edx
  400170:	bb 00 00 00 00       	mov    $0x0,%ebx
  400175:	81 e3 ff ff ff 7f    	and    $0x7fffffff,%ebx
  40017b:	81 f3 00 00 00 80    	xor    $0x80000000,%ebx
  400181:	21 d8                	and    %ebx,%eax
  400183:	39 d8                	cmp    %ebx,%eax
  400185:	75 05                	jne    40018c <nexti+0x79>
  400187:	e9 96 06 00 00       	jmpq   400822 <v_Imm>
  40018c:	89 d0                	mov    %edx,%eax
  40018e:	bb 00 00 00 40       	mov    $0x40000000,%ebx
  400193:	81 e3 ff ff ff 7f    	and    $0x7fffffff,%ebx
  400199:	21 d8                	and    %ebx,%eax
  40019b:	39 d8                	cmp    %ebx,%eax
  40019d:	75 05                	jne    4001a4 <nexti+0x91>
  40019f:	e9 db 01 00 00       	jmpq   40037f <v_complex_instrs>
  4001a4:	89 d0                	mov    %edx,%eax
  4001a6:	bb 00 00 00 ff       	mov    $0xff000000,%ebx
  4001ab:	81 e3 ff ff ff 7f    	and    $0x7fffffff,%ebx
  4001b1:	21 d8                	and    %ebx,%eax
  4001b3:	bb 00 00 00 00       	mov    $0x0,%ebx
  4001b8:	81 e3 ff ff ff 7f    	and    $0x7fffffff,%ebx
  4001be:	39 d8                	cmp    %ebx,%eax
  4001c0:	75 05                	jne    4001c7 <nexti+0xb4>
  4001c2:	e9 d7 08 00 00       	jmpq   400a9e <v_Noop>
  4001c7:	bb 00 00 00 01       	mov    $0x1000000,%ebx
  4001cc:	81 e3 ff ff ff 7f    	and    $0x7fffffff,%ebx
  4001d2:	39 d8                	cmp    %ebx,%eax
  4001d4:	75 05                	jne    4001db <nexti+0xc8>
  4001d6:	e9 1e 02 00 00       	jmpq   4003f9 <v_Add>
  4001db:	bb 00 00 00 02       	mov    $0x2000000,%ebx
  4001e0:	81 e3 ff ff ff 7f    	and    $0x7fffffff,%ebx
  4001e6:	39 d8                	cmp    %ebx,%eax
  4001e8:	75 05                	jne    4001ef <nexti+0xdc>
  4001ea:	e9 62 02 00 00       	jmpq   400451 <v_Sub>
  4001ef:	bb 00 00 00 04       	mov    $0x4000000,%ebx
  4001f4:	81 e3 ff ff ff 7f    	and    $0x7fffffff,%ebx
  4001fa:	39 d8                	cmp    %ebx,%eax
  4001fc:	75 05                	jne    400203 <nexti+0xf0>
  4001fe:	e9 a6 02 00 00       	jmpq   4004a9 <v_And>
  400203:	bb 00 00 00 03       	mov    $0x3000000,%ebx
  400208:	81 e3 ff ff ff 7f    	and    $0x7fffffff,%ebx
  40020e:	39 d8                	cmp    %ebx,%eax
  400210:	75 05                	jne    400217 <nexti+0x104>
  400212:	e9 ea 02 00 00       	jmpq   400501 <v_Or>
  400217:	bb 00 00 00 05       	mov    $0x5000000,%ebx
  40021c:	81 e3 ff ff ff 7f    	and    $0x7fffffff,%ebx
  400222:	39 d8                	cmp    %ebx,%eax
  400224:	75 05                	jne    40022b <nexti+0x118>
  400226:	e9 2e 03 00 00       	jmpq   400559 <v_Xor>
  40022b:	bb 00 00 00 08       	mov    $0x8000000,%ebx
  400230:	81 e3 ff ff ff 7f    	and    $0x7fffffff,%ebx
  400236:	39 d8                	cmp    %ebx,%eax
  400238:	75 05                	jne    40023f <nexti+0x12c>
  40023a:	e9 72 03 00 00       	jmpq   4005b1 <v_Shl>
  40023f:	bb 00 00 00 09       	mov    $0x9000000,%ebx
  400244:	81 e3 ff ff ff 7f    	and    $0x7fffffff,%ebx
  40024a:	39 d8                	cmp    %ebx,%eax
  40024c:	75 05                	jne    400253 <nexti+0x140>
  40024e:	e9 bb 03 00 00       	jmpq   40060e <v_Shr>
  400253:	bb 00 00 00 10       	mov    $0x10000000,%ebx
  400258:	81 e3 ff ff ff 7f    	and    $0x7fffffff,%ebx
  40025e:	39 d8                	cmp    %ebx,%eax
  400260:	75 05                	jne    400267 <nexti+0x154>
  400262:	e9 04 04 00 00       	jmpq   40066b <v_Get>
  400267:	bb 00 00 00 11       	mov    $0x11000000,%ebx
  40026c:	81 e3 ff ff ff 7f    	and    $0x7fffffff,%ebx
  400272:	39 d8                	cmp    %ebx,%eax
  400274:	75 05                	jne    40027b <nexti+0x168>
  400276:	e9 57 04 00 00       	jmpq   4006d2 <v_Put>
  40027b:	bb 00 00 00 12       	mov    $0x12000000,%ebx
  400280:	81 e3 ff ff ff 7f    	and    $0x7fffffff,%ebx
  400286:	39 d8                	cmp    %ebx,%eax
  400288:	75 05                	jne    40028f <nexti+0x17c>
  40028a:	e9 ae 04 00 00       	jmpq   40073d <v_At>
  40028f:	bb 00 00 00 20       	mov    $0x20000000,%ebx
  400294:	81 e3 ff ff ff 7f    	and    $0x7fffffff,%ebx
  40029a:	39 d8                	cmp    %ebx,%eax
  40029c:	75 05                	jne    4002a3 <nexti+0x190>
  40029e:	e9 01 05 00 00       	jmpq   4007a4 <v_Inc>
  4002a3:	bb 00 00 00 21       	mov    $0x21000000,%ebx
  4002a8:	81 e3 ff ff ff 7f    	and    $0x7fffffff,%ebx
  4002ae:	39 d8                	cmp    %ebx,%eax
  4002b0:	75 05                	jne    4002b7 <nexti+0x1a4>
  4002b2:	e9 2c 05 00 00       	jmpq   4007e3 <v_Dec>
  4002b7:	bb 00 00 00 23       	mov    $0x23000000,%ebx
  4002bc:	81 e3 ff ff ff 7f    	and    $0x7fffffff,%ebx
  4002c2:	39 d8                	cmp    %ebx,%eax
  4002c4:	75 05                	jne    4002cb <nexti+0x1b8>
  4002c6:	e9 cd 05 00 00       	jmpq   400898 <v_Swap>
  4002cb:	bb 00 00 00 30       	mov    $0x30000000,%ebx
  4002d0:	81 e3 ff ff ff 7f    	and    $0x7fffffff,%ebx
  4002d6:	39 d8                	cmp    %ebx,%eax
  4002d8:	75 05                	jne    4002df <nexti+0x1cc>
  4002da:	e9 30 06 00 00       	jmpq   40090f <v_Tob>
  4002df:	bb 00 00 00 31       	mov    $0x31000000,%ebx
  4002e4:	81 e3 ff ff ff 7f    	and    $0x7fffffff,%ebx
  4002ea:	39 d8                	cmp    %ebx,%eax
  4002ec:	75 05                	jne    4002f3 <nexti+0x1e0>
  4002ee:	e9 57 06 00 00       	jmpq   40094a <v_Tor>
  4002f3:	bb 00 00 00 32       	mov    $0x32000000,%ebx
  4002f8:	81 e3 ff ff ff 7f    	and    $0x7fffffff,%ebx
  4002fe:	39 d8                	cmp    %ebx,%eax
  400300:	75 05                	jne    400307 <nexti+0x1f4>
  400302:	e9 7e 06 00 00       	jmpq   400985 <v_Tot>
  400307:	bb 00 00 00 33       	mov    $0x33000000,%ebx
  40030c:	81 e3 ff ff ff 7f    	and    $0x7fffffff,%ebx
  400312:	39 d8                	cmp    %ebx,%eax
  400314:	75 05                	jne    40031b <nexti+0x208>
  400316:	e9 a5 06 00 00       	jmpq   4009c0 <v_Fromb>
  40031b:	bb 00 00 00 34       	mov    $0x34000000,%ebx
  400320:	81 e3 ff ff ff 7f    	and    $0x7fffffff,%ebx
  400326:	39 d8                	cmp    %ebx,%eax
  400328:	75 05                	jne    40032f <nexti+0x21c>
  40032a:	e9 cc 06 00 00       	jmpq   4009fb <v_Fromr>
  40032f:	bb 00 00 00 35       	mov    $0x35000000,%ebx
  400334:	81 e3 ff ff ff 7f    	and    $0x7fffffff,%ebx
  40033a:	39 d8                	cmp    %ebx,%eax
  40033c:	75 05                	jne    400343 <nexti+0x230>
  40033e:	e9 f3 06 00 00       	jmpq   400a36 <v_Fromt>
  400343:	bb 00 00 00 36       	mov    $0x36000000,%ebx
  400348:	81 e3 ff ff ff 7f    	and    $0x7fffffff,%ebx
  40034e:	39 d8                	cmp    %ebx,%eax
  400350:	75 05                	jne    400357 <nexti+0x244>
  400352:	e9 1a 07 00 00       	jmpq   400a71 <v_Mdm>
  400357:	bb 00 00 00 37       	mov    $0x37000000,%ebx
  40035c:	81 e3 ff ff ff 7f    	and    $0x7fffffff,%ebx
  400362:	39 d8                	cmp    %ebx,%eax
  400364:	75 05                	jne    40036b <nexti+0x258>
  400366:	e9 21 08 00 00       	jmpq   400b8c <v_Link>
  40036b:	bb 00 00 00 3f       	mov    $0x3f000000,%ebx
  400370:	81 e3 ff ff ff 7f    	and    $0x7fffffff,%ebx
  400376:	39 d8                	cmp    %ebx,%eax
  400378:	75 05                	jne    40037f <v_complex_instrs>
  40037a:	e9 c4 08 00 00       	jmpq   400c43 <v_Halt>

000000000040037f <v_complex_instrs>:
  40037f:	89 d0                	mov    %edx,%eax
  400381:	bb 00 00 00 ff       	mov    $0xff000000,%ebx
  400386:	81 e3 ff ff ff 7f    	and    $0x7fffffff,%ebx
  40038c:	21 d8                	and    %ebx,%eax
  40038e:	bb 00 00 00 41       	mov    $0x41000000,%ebx
  400393:	81 e3 ff ff ff 7f    	and    $0x7fffffff,%ebx
  400399:	39 d8                	cmp    %ebx,%eax
  40039b:	75 05                	jne    4003a2 <v_complex_instrs+0x23>
  40039d:	e9 01 07 00 00       	jmpq   400aa3 <v_Jmpe>
  4003a2:	bb 00 00 00 46       	mov    $0x46000000,%ebx
  4003a7:	81 e3 ff ff ff 7f    	and    $0x7fffffff,%ebx
  4003ad:	39 d8                	cmp    %ebx,%eax
  4003af:	75 05                	jne    4003b6 <v_complex_instrs+0x37>
  4003b1:	e9 42 07 00 00       	jmpq   400af8 <v_Jump>
  4003b6:	bb 00 00 00 50       	mov    $0x50000000,%ebx
  4003bb:	81 e3 ff ff ff 7f    	and    $0x7fffffff,%ebx
  4003c1:	39 d8                	cmp    %ebx,%eax
  4003c3:	75 05                	jne    4003ca <v_complex_instrs+0x4b>
  4003c5:	e9 fd 07 00 00       	jmpq   400bc7 <v_Rpt>
  4003ca:	bb 00 00 00 61       	mov    $0x61000000,%ebx
  4003cf:	81 e3 ff ff ff 7f    	and    $0x7fffffff,%ebx
  4003d5:	39 d8                	cmp    %ebx,%eax
  4003d7:	75 05                	jne    4003de <v_complex_instrs+0x5f>
  4003d9:	e9 49 07 00 00       	jmpq   400b27 <v_Br>
  4003de:	bb 02 00 00 00       	mov    $0x2,%ebx
  4003e3:	81 e3 ff ff ff 7f    	and    $0x7fffffff,%ebx
  4003e9:	89 d8                	mov    %ebx,%eax
  4003eb:	25 ff 00 00 00       	and    $0xff,%eax
  4003f0:	89 c3                	mov    %eax,%ebx
  4003f2:	b8 01 00 00 00       	mov    $0x1,%eax
  4003f7:	cd 80                	int    $0x80

00000000004003f9 <v_Add>:
  4003f9:	bb 01 20 00 00       	mov    $0x2001,%ebx
  4003fe:	81 e3 ff ff ff 7f    	and    $0x7fffffff,%ebx
  400404:	89 d9                	mov    %ebx,%ecx
  400406:	81 e1 ff ff ff 0f    	and    $0xfffffff,%ecx
  40040c:	67 8b 04 8d 10 0e 60 	mov    0x600e10(,%ecx,4),%eax
  400413:	00 
  400414:	bb 02 20 00 00       	mov    $0x2002,%ebx
  400419:	81 e3 ff ff ff 7f    	and    $0x7fffffff,%ebx
  40041f:	89 d9                	mov    %ebx,%ecx
  400421:	81 e1 ff ff ff 0f    	and    $0xfffffff,%ecx
  400427:	67 8b 1c 8d 10 0e 60 	mov    0x600e10(,%ecx,4),%ebx
  40042e:	00 
  40042f:	01 d8                	add    %ebx,%eax
  400431:	bb 01 20 00 00       	mov    $0x2001,%ebx
  400436:	81 e3 ff ff ff 7f    	and    $0x7fffffff,%ebx
  40043c:	89 d9                	mov    %ebx,%ecx
  40043e:	81 e1 ff ff ff 0f    	and    $0xfffffff,%ecx
  400444:	67 89 04 8d 10 0e 60 	mov    %eax,0x600e10(,%ecx,4)
  40044b:	00 
  40044c:	e9 c2 fc ff ff       	jmpq   400113 <nexti>

0000000000400451 <v_Sub>:
  400451:	bb 01 20 00 00       	mov    $0x2001,%ebx
  400456:	81 e3 ff ff ff 7f    	and    $0x7fffffff,%ebx
  40045c:	89 d9                	mov    %ebx,%ecx
  40045e:	81 e1 ff ff ff 0f    	and    $0xfffffff,%ecx
  400464:	67 8b 04 8d 10 0e 60 	mov    0x600e10(,%ecx,4),%eax
  40046b:	00 
  40046c:	bb 02 20 00 00       	mov    $0x2002,%ebx
  400471:	81 e3 ff ff ff 7f    	and    $0x7fffffff,%ebx
  400477:	89 d9                	mov    %ebx,%ecx
  400479:	81 e1 ff ff ff 0f    	and    $0xfffffff,%ecx
  40047f:	67 8b 1c 8d 10 0e 60 	mov    0x600e10(,%ecx,4),%ebx
  400486:	00 
  400487:	29 d8                	sub    %ebx,%eax
  400489:	bb 01 20 00 00       	mov    $0x2001,%ebx
  40048e:	81 e3 ff ff ff 7f    	and    $0x7fffffff,%ebx
  400494:	89 d9                	mov    %ebx,%ecx
  400496:	81 e1 ff ff ff 0f    	and    $0xfffffff,%ecx
  40049c:	67 89 04 8d 10 0e 60 	mov    %eax,0x600e10(,%ecx,4)
  4004a3:	00 
  4004a4:	e9 6a fc ff ff       	jmpq   400113 <nexti>

00000000004004a9 <v_And>:
  4004a9:	bb 01 20 00 00       	mov    $0x2001,%ebx
  4004ae:	81 e3 ff ff ff 7f    	and    $0x7fffffff,%ebx
  4004b4:	89 d9                	mov    %ebx,%ecx
  4004b6:	81 e1 ff ff ff 0f    	and    $0xfffffff,%ecx
  4004bc:	67 8b 04 8d 10 0e 60 	mov    0x600e10(,%ecx,4),%eax
  4004c3:	00 
  4004c4:	bb 02 20 00 00       	mov    $0x2002,%ebx
  4004c9:	81 e3 ff ff ff 7f    	and    $0x7fffffff,%ebx
  4004cf:	89 d9                	mov    %ebx,%ecx
  4004d1:	81 e1 ff ff ff 0f    	and    $0xfffffff,%ecx
  4004d7:	67 8b 1c 8d 10 0e 60 	mov    0x600e10(,%ecx,4),%ebx
  4004de:	00 
  4004df:	21 d8                	and    %ebx,%eax
  4004e1:	bb 01 20 00 00       	mov    $0x2001,%ebx
  4004e6:	81 e3 ff ff ff 7f    	and    $0x7fffffff,%ebx
  4004ec:	89 d9                	mov    %ebx,%ecx
  4004ee:	81 e1 ff ff ff 0f    	and    $0xfffffff,%ecx
  4004f4:	67 89 04 8d 10 0e 60 	mov    %eax,0x600e10(,%ecx,4)
  4004fb:	00 
  4004fc:	e9 12 fc ff ff       	jmpq   400113 <nexti>

0000000000400501 <v_Or>:
  400501:	bb 01 20 00 00       	mov    $0x2001,%ebx
  400506:	81 e3 ff ff ff 7f    	and    $0x7fffffff,%ebx
  40050c:	89 d9                	mov    %ebx,%ecx
  40050e:	81 e1 ff ff ff 0f    	and    $0xfffffff,%ecx
  400514:	67 8b 04 8d 10 0e 60 	mov    0x600e10(,%ecx,4),%eax
  40051b:	00 
  40051c:	bb 02 20 00 00       	mov    $0x2002,%ebx
  400521:	81 e3 ff ff ff 7f    	and    $0x7fffffff,%ebx
  400527:	89 d9                	mov    %ebx,%ecx
  400529:	81 e1 ff ff ff 0f    	and    $0xfffffff,%ecx
  40052f:	67 8b 1c 8d 10 0e 60 	mov    0x600e10(,%ecx,4),%ebx
  400536:	00 
  400537:	09 d8                	or     %ebx,%eax
  400539:	bb 01 20 00 00       	mov    $0x2001,%ebx
  40053e:	81 e3 ff ff ff 7f    	and    $0x7fffffff,%ebx
  400544:	89 d9                	mov    %ebx,%ecx
  400546:	81 e1 ff ff ff 0f    	and    $0xfffffff,%ecx
  40054c:	67 89 04 8d 10 0e 60 	mov    %eax,0x600e10(,%ecx,4)
  400553:	00 
  400554:	e9 ba fb ff ff       	jmpq   400113 <nexti>

0000000000400559 <v_Xor>:
  400559:	bb 01 20 00 00       	mov    $0x2001,%ebx
  40055e:	81 e3 ff ff ff 7f    	and    $0x7fffffff,%ebx
  400564:	89 d9                	mov    %ebx,%ecx
  400566:	81 e1 ff ff ff 0f    	and    $0xfffffff,%ecx
  40056c:	67 8b 04 8d 10 0e 60 	mov    0x600e10(,%ecx,4),%eax
  400573:	00 
  400574:	bb 02 20 00 00       	mov    $0x2002,%ebx
  400579:	81 e3 ff ff ff 7f    	and    $0x7fffffff,%ebx
  40057f:	89 d9                	mov    %ebx,%ecx
  400581:	81 e1 ff ff ff 0f    	and    $0xfffffff,%ecx
  400587:	67 8b 1c 8d 10 0e 60 	mov    0x600e10(,%ecx,4),%ebx
  40058e:	00 
  40058f:	31 d8                	xor    %ebx,%eax
  400591:	bb 01 20 00 00       	mov    $0x2001,%ebx
  400596:	81 e3 ff ff ff 7f    	and    $0x7fffffff,%ebx
  40059c:	89 d9                	mov    %ebx,%ecx
  40059e:	81 e1 ff ff ff 0f    	and    $0xfffffff,%ecx
  4005a4:	67 89 04 8d 10 0e 60 	mov    %eax,0x600e10(,%ecx,4)
  4005ab:	00 
  4005ac:	e9 62 fb ff ff       	jmpq   400113 <nexti>

00000000004005b1 <v_Shl>:
  4005b1:	bb 01 20 00 00       	mov    $0x2001,%ebx
  4005b6:	81 e3 ff ff ff 7f    	and    $0x7fffffff,%ebx
  4005bc:	89 d9                	mov    %ebx,%ecx
  4005be:	81 e1 ff ff ff 0f    	and    $0xfffffff,%ecx
  4005c4:	67 8b 04 8d 10 0e 60 	mov    0x600e10(,%ecx,4),%eax
  4005cb:	00 
  4005cc:	bb 02 20 00 00       	mov    $0x2002,%ebx
  4005d1:	81 e3 ff ff ff 7f    	and    $0x7fffffff,%ebx
  4005d7:	89 d9                	mov    %ebx,%ecx
  4005d9:	81 e1 ff ff ff 0f    	and    $0xfffffff,%ecx
  4005df:	67 8b 1c 8d 10 0e 60 	mov    0x600e10(,%ecx,4),%ebx
  4005e6:	00 
  4005e7:	89 d9                	mov    %ebx,%ecx
  4005e9:	83 e1 1f             	and    $0x1f,%ecx
  4005ec:	d3 e0                	shl    %cl,%eax
  4005ee:	bb 01 20 00 00       	mov    $0x2001,%ebx
  4005f3:	81 e3 ff ff ff 7f    	and    $0x7fffffff,%ebx
  4005f9:	89 d9                	mov    %ebx,%ecx
  4005fb:	81 e1 ff ff ff 0f    	and    $0xfffffff,%ecx
  400601:	67 89 04 8d 10 0e 60 	mov    %eax,0x600e10(,%ecx,4)
  400608:	00 
  400609:	e9 05 fb ff ff       	jmpq   400113 <nexti>

000000000040060e <v_Shr>:
  40060e:	bb 01 20 00 00       	mov    $0x2001,%ebx
  400613:	81 e3 ff ff ff 7f    	and    $0x7fffffff,%ebx
  400619:	89 d9                	mov    %ebx,%ecx
  40061b:	81 e1 ff ff ff 0f    	and    $0xfffffff,%ecx
  400621:	67 8b 04 8d 10 0e 60 	mov    0x600e10(,%ecx,4),%eax
  400628:	00 
  400629:	bb 02 20 00 00       	mov    $0x2002,%ebx
  40062e:	81 e3 ff ff ff 7f    	and    $0x7fffffff,%ebx
  400634:	89 d9                	mov    %ebx,%ecx
  400636:	81 e1 ff ff ff 0f    	and    $0xfffffff,%ecx
  40063c:	67 8b 1c 8d 10 0e 60 	mov    0x600e10(,%ecx,4),%ebx
  400643:	00 
  400644:	89 d9                	mov    %ebx,%ecx
  400646:	83 e1 1f             	and    $0x1f,%ecx
  400649:	d3 e8                	shr    %cl,%eax
  40064b:	bb 01 20 00 00       	mov    $0x2001,%ebx
  400650:	81 e3 ff ff ff 7f    	and    $0x7fffffff,%ebx
  400656:	89 d9                	mov    %ebx,%ecx
  400658:	81 e1 ff ff ff 0f    	and    $0xfffffff,%ecx
  40065e:	67 89 04 8d 10 0e 60 	mov    %eax,0x600e10(,%ecx,4)
  400665:	00 
  400666:	e9 a8 fa ff ff       	jmpq   400113 <nexti>

000000000040066b <v_Get>:
  40066b:	bb 02 20 00 00       	mov    $0x2002,%ebx
  400670:	81 e3 ff ff ff 7f    	and    $0x7fffffff,%ebx
  400676:	89 d9                	mov    %ebx,%ecx
  400678:	81 e1 ff ff ff 0f    	and    $0xfffffff,%ecx
  40067e:	67 8b 04 8d 10 0e 60 	mov    0x600e10(,%ecx,4),%eax
  400685:	00 
  400686:	bb ff 0f 00 00       	mov    $0xfff,%ebx
  40068b:	81 e3 ff ff ff 7f    	and    $0x7fffffff,%ebx
  400691:	21 d8                	and    %ebx,%eax
  400693:	bb 00 10 00 00       	mov    $0x1000,%ebx
  400698:	81 e3 ff ff ff 7f    	and    $0x7fffffff,%ebx
  40069e:	01 d8                	add    %ebx,%eax
  4006a0:	89 c3                	mov    %eax,%ebx
  4006a2:	89 d9                	mov    %ebx,%ecx
  4006a4:	81 e1 ff ff ff 0f    	and    $0xfffffff,%ecx
  4006aa:	67 8b 04 8d 10 0e 60 	mov    0x600e10(,%ecx,4),%eax
  4006b1:	00 
  4006b2:	bb 01 20 00 00       	mov    $0x2001,%ebx
  4006b7:	81 e3 ff ff ff 7f    	and    $0x7fffffff,%ebx
  4006bd:	89 d9                	mov    %ebx,%ecx
  4006bf:	81 e1 ff ff ff 0f    	and    $0xfffffff,%ecx
  4006c5:	67 89 04 8d 10 0e 60 	mov    %eax,0x600e10(,%ecx,4)
  4006cc:	00 
  4006cd:	e9 41 fa ff ff       	jmpq   400113 <nexti>

00000000004006d2 <v_Put>:
  4006d2:	bb 02 20 00 00       	mov    $0x2002,%ebx
  4006d7:	81 e3 ff ff ff 7f    	and    $0x7fffffff,%ebx
  4006dd:	89 d9                	mov    %ebx,%ecx
  4006df:	81 e1 ff ff ff 0f    	and    $0xfffffff,%ecx
  4006e5:	67 8b 04 8d 10 0e 60 	mov    0x600e10(,%ecx,4),%eax
  4006ec:	00 
  4006ed:	bb ff 0f 00 00       	mov    $0xfff,%ebx
  4006f2:	81 e3 ff ff ff 7f    	and    $0x7fffffff,%ebx
  4006f8:	21 d8                	and    %ebx,%eax
  4006fa:	bb 00 10 00 00       	mov    $0x1000,%ebx
  4006ff:	81 e3 ff ff ff 7f    	and    $0x7fffffff,%ebx
  400705:	01 d8                	add    %ebx,%eax
  400707:	bb 01 20 00 00       	mov    $0x2001,%ebx
  40070c:	81 e3 ff ff ff 7f    	and    $0x7fffffff,%ebx
  400712:	89 d9                	mov    %ebx,%ecx
  400714:	81 e1 ff ff ff 0f    	and    $0xfffffff,%ecx
  40071a:	67 8b 1c 8d 10 0e 60 	mov    0x600e10(,%ecx,4),%ebx
  400721:	00 
  400722:	89 c1                	mov    %eax,%ecx
  400724:	89 d8                	mov    %ebx,%eax
  400726:	89 cb                	mov    %ecx,%ebx
  400728:	89 d9                	mov    %ebx,%ecx
  40072a:	81 e1 ff ff ff 0f    	and    $0xfffffff,%ecx
  400730:	67 89 04 8d 10 0e 60 	mov    %eax,0x600e10(,%ecx,4)
  400737:	00 
  400738:	e9 d6 f9 ff ff       	jmpq   400113 <nexti>

000000000040073d <v_At>:
  40073d:	bb 02 20 00 00       	mov    $0x2002,%ebx
  400742:	81 e3 ff ff ff 7f    	and    $0x7fffffff,%ebx
  400748:	89 d9                	mov    %ebx,%ecx
  40074a:	81 e1 ff ff ff 0f    	and    $0xfffffff,%ecx
  400750:	67 8b 04 8d 10 0e 60 	mov    0x600e10(,%ecx,4),%eax
  400757:	00 
  400758:	bb ff 0f 00 00       	mov    $0xfff,%ebx
  40075d:	81 e3 ff ff ff 7f    	and    $0x7fffffff,%ebx
  400763:	21 d8                	and    %ebx,%eax
  400765:	bb 00 10 00 00       	mov    $0x1000,%ebx
  40076a:	81 e3 ff ff ff 7f    	and    $0x7fffffff,%ebx
  400770:	01 d8                	add    %ebx,%eax
  400772:	89 c3                	mov    %eax,%ebx
  400774:	89 d9                	mov    %ebx,%ecx
  400776:	81 e1 ff ff ff 0f    	and    $0xfffffff,%ecx
  40077c:	67 8b 04 8d 10 0e 60 	mov    0x600e10(,%ecx,4),%eax
  400783:	00 
  400784:	bb 02 20 00 00       	mov    $0x2002,%ebx
  400789:	81 e3 ff ff ff 7f    	and    $0x7fffffff,%ebx
  40078f:	89 d9                	mov    %ebx,%ecx
  400791:	81 e1 ff ff ff 0f    	and    $0xfffffff,%ecx
  400797:	67 89 04 8d 10 0e 60 	mov    %eax,0x600e10(,%ecx,4)
  40079e:	00 
  40079f:	e9 6f f9 ff ff       	jmpq   400113 <nexti>

00000000004007a4 <v_Inc>:
  4007a4:	bb 02 20 00 00       	mov    $0x2002,%ebx
  4007a9:	81 e3 ff ff ff 7f    	and    $0x7fffffff,%ebx
  4007af:	89 d9                	mov    %ebx,%ecx
  4007b1:	81 e1 ff ff ff 0f    	and    $0xfffffff,%ecx
  4007b7:	67 8b 1c 8d 10 0e 60 	mov    0x600e10(,%ecx,4),%ebx
  4007be:	00 
  4007bf:	ff c3                	inc    %ebx
  4007c1:	89 d8                	mov    %ebx,%eax
  4007c3:	bb 02 20 00 00       	mov    $0x2002,%ebx
  4007c8:	81 e3 ff ff ff 7f    	and    $0x7fffffff,%ebx
  4007ce:	89 d9                	mov    %ebx,%ecx
  4007d0:	81 e1 ff ff ff 0f    	and    $0xfffffff,%ecx
  4007d6:	67 89 04 8d 10 0e 60 	mov    %eax,0x600e10(,%ecx,4)
  4007dd:	00 
  4007de:	e9 30 f9 ff ff       	jmpq   400113 <nexti>

00000000004007e3 <v_Dec>:
  4007e3:	bb 02 20 00 00       	mov    $0x2002,%ebx
  4007e8:	81 e3 ff ff ff 7f    	and    $0x7fffffff,%ebx
  4007ee:	89 d9                	mov    %ebx,%ecx
  4007f0:	81 e1 ff ff ff 0f    	and    $0xfffffff,%ecx
  4007f6:	67 8b 1c 8d 10 0e 60 	mov    0x600e10(,%ecx,4),%ebx
  4007fd:	00 
  4007fe:	ff cb                	dec    %ebx
  400800:	89 d8                	mov    %ebx,%eax
  400802:	bb 02 20 00 00       	mov    $0x2002,%ebx
  400807:	81 e3 ff ff ff 7f    	and    $0x7fffffff,%ebx
  40080d:	89 d9                	mov    %ebx,%ecx
  40080f:	81 e1 ff ff ff 0f    	and    $0xfffffff,%ecx
  400815:	67 89 04 8d 10 0e 60 	mov    %eax,0x600e10(,%ecx,4)
  40081c:	00 
  40081d:	e9 f1 f8 ff ff       	jmpq   400113 <nexti>

0000000000400822 <v_Imm>:
  400822:	89 d0                	mov    %edx,%eax
  400824:	bb 00 00 00 00       	mov    $0x0,%ebx
  400829:	81 e3 ff ff ff 7f    	and    $0x7fffffff,%ebx
  40082f:	81 f3 00 00 00 80    	xor    $0x80000000,%ebx
  400835:	31 d8                	xor    %ebx,%eax
  400837:	bb 02 20 00 00       	mov    $0x2002,%ebx
  40083c:	81 e3 ff ff ff 7f    	and    $0x7fffffff,%ebx
  400842:	89 d9                	mov    %ebx,%ecx
  400844:	81 e1 ff ff ff 0f    	and    $0xfffffff,%ecx
  40084a:	67 89 04 8d 10 0e 60 	mov    %eax,0x600e10(,%ecx,4)
  400851:	00 
  400852:	e9 bc f8 ff ff       	jmpq   400113 <nexti>

0000000000400857 <v_Flip>:
  400857:	bb 02 20 00 00       	mov    $0x2002,%ebx
  40085c:	81 e3 ff ff ff 7f    	and    $0x7fffffff,%ebx
  400862:	89 d9                	mov    %ebx,%ecx
  400864:	81 e1 ff ff ff 0f    	and    $0xfffffff,%ecx
  40086a:	67 8b 1c 8d 10 0e 60 	mov    0x600e10(,%ecx,4),%ebx
  400871:	00 
  400872:	81 f3 00 00 00 80    	xor    $0x80000000,%ebx
  400878:	bb 02 20 00 00       	mov    $0x2002,%ebx
  40087d:	81 e3 ff ff ff 7f    	and    $0x7fffffff,%ebx
  400883:	89 d9                	mov    %ebx,%ecx
  400885:	81 e1 ff ff ff 0f    	and    $0xfffffff,%ecx
  40088b:	67 89 04 8d 10 0e 60 	mov    %eax,0x600e10(,%ecx,4)
  400892:	00 
  400893:	e9 7b f8 ff ff       	jmpq   400113 <nexti>

0000000000400898 <v_Swap>:
  400898:	bb 01 20 00 00       	mov    $0x2001,%ebx
  40089d:	81 e3 ff ff ff 7f    	and    $0x7fffffff,%ebx
  4008a3:	89 d9                	mov    %ebx,%ecx
  4008a5:	81 e1 ff ff ff 0f    	and    $0xfffffff,%ecx
  4008ab:	67 8b 04 8d 10 0e 60 	mov    0x600e10(,%ecx,4),%eax
  4008b2:	00 
  4008b3:	bb 02 20 00 00       	mov    $0x2002,%ebx
  4008b8:	81 e3 ff ff ff 7f    	and    $0x7fffffff,%ebx
  4008be:	89 d9                	mov    %ebx,%ecx
  4008c0:	81 e1 ff ff ff 0f    	and    $0xfffffff,%ecx
  4008c6:	67 89 04 8d 10 0e 60 	mov    %eax,0x600e10(,%ecx,4)
  4008cd:	00 
  4008ce:	89 c1                	mov    %eax,%ecx
  4008d0:	89 d8                	mov    %ebx,%eax
  4008d2:	89 cb                	mov    %ecx,%ebx
  4008d4:	bb 02 20 00 00       	mov    $0x2002,%ebx
  4008d9:	81 e3 ff ff ff 7f    	and    $0x7fffffff,%ebx
  4008df:	89 d9                	mov    %ebx,%ecx
  4008e1:	81 e1 ff ff ff 0f    	and    $0xfffffff,%ecx
  4008e7:	67 8b 04 8d 10 0e 60 	mov    0x600e10(,%ecx,4),%eax
  4008ee:	00 
  4008ef:	bb 01 20 00 00       	mov    $0x2001,%ebx
  4008f4:	81 e3 ff ff ff 7f    	and    $0x7fffffff,%ebx
  4008fa:	89 d9                	mov    %ebx,%ecx
  4008fc:	81 e1 ff ff ff 0f    	and    $0xfffffff,%ecx
  400902:	67 89 04 8d 10 0e 60 	mov    %eax,0x600e10(,%ecx,4)
  400909:	00 
  40090a:	e9 04 f8 ff ff       	jmpq   400113 <nexti>

000000000040090f <v_Tob>:
  40090f:	bb 01 20 00 00       	mov    $0x2001,%ebx
  400914:	81 e3 ff ff ff 7f    	and    $0x7fffffff,%ebx
  40091a:	89 d9                	mov    %ebx,%ecx
  40091c:	81 e1 ff ff ff 0f    	and    $0xfffffff,%ecx
  400922:	67 8b 04 8d 10 0e 60 	mov    0x600e10(,%ecx,4),%eax
  400929:	00 
  40092a:	bb 02 20 00 00       	mov    $0x2002,%ebx
  40092f:	81 e3 ff ff ff 7f    	and    $0x7fffffff,%ebx
  400935:	89 d9                	mov    %ebx,%ecx
  400937:	81 e1 ff ff ff 0f    	and    $0xfffffff,%ecx
  40093d:	67 89 04 8d 10 0e 60 	mov    %eax,0x600e10(,%ecx,4)
  400944:	00 
  400945:	e9 c9 f7 ff ff       	jmpq   400113 <nexti>

000000000040094a <v_Tor>:
  40094a:	bb 01 20 00 00       	mov    $0x2001,%ebx
  40094f:	81 e3 ff ff ff 7f    	and    $0x7fffffff,%ebx
  400955:	89 d9                	mov    %ebx,%ecx
  400957:	81 e1 ff ff ff 0f    	and    $0xfffffff,%ecx
  40095d:	67 8b 04 8d 10 0e 60 	mov    0x600e10(,%ecx,4),%eax
  400964:	00 
  400965:	bb 05 20 00 00       	mov    $0x2005,%ebx
  40096a:	81 e3 ff ff ff 7f    	and    $0x7fffffff,%ebx
  400970:	89 d9                	mov    %ebx,%ecx
  400972:	81 e1 ff ff ff 0f    	and    $0xfffffff,%ecx
  400978:	67 89 04 8d 10 0e 60 	mov    %eax,0x600e10(,%ecx,4)
  40097f:	00 
  400980:	e9 8e f7 ff ff       	jmpq   400113 <nexti>

0000000000400985 <v_Tot>:
  400985:	bb 01 20 00 00       	mov    $0x2001,%ebx
  40098a:	81 e3 ff ff ff 7f    	and    $0x7fffffff,%ebx
  400990:	89 d9                	mov    %ebx,%ecx
  400992:	81 e1 ff ff ff 0f    	and    $0xfffffff,%ecx
  400998:	67 8b 04 8d 10 0e 60 	mov    0x600e10(,%ecx,4),%eax
  40099f:	00 
  4009a0:	bb 04 20 00 00       	mov    $0x2004,%ebx
  4009a5:	81 e3 ff ff ff 7f    	and    $0x7fffffff,%ebx
  4009ab:	89 d9                	mov    %ebx,%ecx
  4009ad:	81 e1 ff ff ff 0f    	and    $0xfffffff,%ecx
  4009b3:	67 89 04 8d 10 0e 60 	mov    %eax,0x600e10(,%ecx,4)
  4009ba:	00 
  4009bb:	e9 53 f7 ff ff       	jmpq   400113 <nexti>

00000000004009c0 <v_Fromb>:
  4009c0:	bb 02 20 00 00       	mov    $0x2002,%ebx
  4009c5:	81 e3 ff ff ff 7f    	and    $0x7fffffff,%ebx
  4009cb:	89 d9                	mov    %ebx,%ecx
  4009cd:	81 e1 ff ff ff 0f    	and    $0xfffffff,%ecx
  4009d3:	67 8b 04 8d 10 0e 60 	mov    0x600e10(,%ecx,4),%eax
  4009da:	00 
  4009db:	bb 01 20 00 00       	mov    $0x2001,%ebx
  4009e0:	81 e3 ff ff ff 7f    	and    $0x7fffffff,%ebx
  4009e6:	89 d9                	mov    %ebx,%ecx
  4009e8:	81 e1 ff ff ff 0f    	and    $0xfffffff,%ecx
  4009ee:	67 89 04 8d 10 0e 60 	mov    %eax,0x600e10(,%ecx,4)
  4009f5:	00 
  4009f6:	e9 18 f7 ff ff       	jmpq   400113 <nexti>

00000000004009fb <v_Fromr>:
  4009fb:	bb 05 20 00 00       	mov    $0x2005,%ebx
  400a00:	81 e3 ff ff ff 7f    	and    $0x7fffffff,%ebx
  400a06:	89 d9                	mov    %ebx,%ecx
  400a08:	81 e1 ff ff ff 0f    	and    $0xfffffff,%ecx
  400a0e:	67 8b 04 8d 10 0e 60 	mov    0x600e10(,%ecx,4),%eax
  400a15:	00 
  400a16:	bb 01 20 00 00       	mov    $0x2001,%ebx
  400a1b:	81 e3 ff ff ff 7f    	and    $0x7fffffff,%ebx
  400a21:	89 d9                	mov    %ebx,%ecx
  400a23:	81 e1 ff ff ff 0f    	and    $0xfffffff,%ecx
  400a29:	67 89 04 8d 10 0e 60 	mov    %eax,0x600e10(,%ecx,4)
  400a30:	00 
  400a31:	e9 dd f6 ff ff       	jmpq   400113 <nexti>

0000000000400a36 <v_Fromt>:
  400a36:	bb 04 20 00 00       	mov    $0x2004,%ebx
  400a3b:	81 e3 ff ff ff 7f    	and    $0x7fffffff,%ebx
  400a41:	89 d9                	mov    %ebx,%ecx
  400a43:	81 e1 ff ff ff 0f    	and    $0xfffffff,%ecx
  400a49:	67 8b 04 8d 10 0e 60 	mov    0x600e10(,%ecx,4),%eax
  400a50:	00 
  400a51:	bb 01 20 00 00       	mov    $0x2001,%ebx
  400a56:	81 e3 ff ff ff 7f    	and    $0x7fffffff,%ebx
  400a5c:	89 d9                	mov    %ebx,%ecx
  400a5e:	81 e1 ff ff ff 0f    	and    $0xfffffff,%ecx
  400a64:	67 89 04 8d 10 0e 60 	mov    %eax,0x600e10(,%ecx,4)
  400a6b:	00 
  400a6c:	e9 a2 f6 ff ff       	jmpq   400113 <nexti>

0000000000400a71 <v_Mdm>:
  400a71:	bb 00 10 00 00       	mov    $0x1000,%ebx
  400a76:	81 e3 ff ff ff 7f    	and    $0x7fffffff,%ebx
  400a7c:	89 d8                	mov    %ebx,%eax
  400a7e:	bb 01 20 00 00       	mov    $0x2001,%ebx
  400a83:	81 e3 ff ff ff 7f    	and    $0x7fffffff,%ebx
  400a89:	89 d9                	mov    %ebx,%ecx
  400a8b:	81 e1 ff ff ff 0f    	and    $0xfffffff,%ecx
  400a91:	67 89 04 8d 10 0e 60 	mov    %eax,0x600e10(,%ecx,4)
  400a98:	00 
  400a99:	e9 75 f6 ff ff       	jmpq   400113 <nexti>

0000000000400a9e <v_Noop>:
  400a9e:	e9 70 f6 ff ff       	jmpq   400113 <nexti>

0000000000400aa3 <v_Jmpe>:
  400aa3:	bb 01 20 00 00       	mov    $0x2001,%ebx
  400aa8:	81 e3 ff ff ff 7f    	and    $0x7fffffff,%ebx
  400aae:	89 d9                	mov    %ebx,%ecx
  400ab0:	81 e1 ff ff ff 0f    	and    $0xfffffff,%ecx
  400ab6:	67 8b 04 8d 10 0e 60 	mov    0x600e10(,%ecx,4),%eax
  400abd:	00 
  400abe:	39 d8                	cmp    %ebx,%eax
  400ac0:	75 02                	jne    400ac4 <v_Jmpe+0x21>
  400ac2:	eb 05                	jmp    400ac9 <v_Jmpe_do>
  400ac4:	e9 4a f6 ff ff       	jmpq   400113 <nexti>

0000000000400ac9 <v_Jmpe_do>:
  400ac9:	89 d0                	mov    %edx,%eax
  400acb:	bb ff ff ff 00       	mov    $0xffffff,%ebx
  400ad0:	81 e3 ff ff ff 7f    	and    $0x7fffffff,%ebx
  400ad6:	21 d8                	and    %ebx,%eax
  400ad8:	bb 00 20 00 00       	mov    $0x2000,%ebx
  400add:	81 e3 ff ff ff 7f    	and    $0x7fffffff,%ebx
  400ae3:	89 d9                	mov    %ebx,%ecx
  400ae5:	81 e1 ff ff ff 0f    	and    $0xfffffff,%ecx
  400aeb:	67 89 04 8d 10 0e 60 	mov    %eax,0x600e10(,%ecx,4)
  400af2:	00 
  400af3:	e9 1b f6 ff ff       	jmpq   400113 <nexti>

0000000000400af8 <v_Jump>:
  400af8:	89 d0                	mov    %edx,%eax
  400afa:	bb ff ff ff 00       	mov    $0xffffff,%ebx
  400aff:	81 e3 ff ff ff 7f    	and    $0x7fffffff,%ebx
  400b05:	21 d8                	and    %ebx,%eax
  400b07:	bb 00 20 00 00       	mov    $0x2000,%ebx
  400b0c:	81 e3 ff ff ff 7f    	and    $0x7fffffff,%ebx
  400b12:	89 d9                	mov    %ebx,%ecx
  400b14:	81 e1 ff ff ff 0f    	and    $0xfffffff,%ecx
  400b1a:	67 89 04 8d 10 0e 60 	mov    %eax,0x600e10(,%ecx,4)
  400b21:	00 
  400b22:	e9 ec f5 ff ff       	jmpq   400113 <nexti>

0000000000400b27 <v_Br>:
  400b27:	bb 00 20 00 00       	mov    $0x2000,%ebx
  400b2c:	81 e3 ff ff ff 7f    	and    $0x7fffffff,%ebx
  400b32:	89 d9                	mov    %ebx,%ecx
  400b34:	81 e1 ff ff ff 0f    	and    $0xfffffff,%ecx
  400b3a:	67 8b 04 8d 10 0e 60 	mov    0x600e10(,%ecx,4),%eax
  400b41:	00 
  400b42:	bb 03 20 00 00       	mov    $0x2003,%ebx
  400b47:	81 e3 ff ff ff 7f    	and    $0x7fffffff,%ebx
  400b4d:	89 d9                	mov    %ebx,%ecx
  400b4f:	81 e1 ff ff ff 0f    	and    $0xfffffff,%ecx
  400b55:	67 89 04 8d 10 0e 60 	mov    %eax,0x600e10(,%ecx,4)
  400b5c:	00 
  400b5d:	89 d0                	mov    %edx,%eax
  400b5f:	bb ff ff ff 00       	mov    $0xffffff,%ebx
  400b64:	81 e3 ff ff ff 7f    	and    $0x7fffffff,%ebx
  400b6a:	21 d8                	and    %ebx,%eax
  400b6c:	bb 00 20 00 00       	mov    $0x2000,%ebx
  400b71:	81 e3 ff ff ff 7f    	and    $0x7fffffff,%ebx
  400b77:	89 d9                	mov    %ebx,%ecx
  400b79:	81 e1 ff ff ff 0f    	and    $0xfffffff,%ecx
  400b7f:	67 89 04 8d 10 0e 60 	mov    %eax,0x600e10(,%ecx,4)
  400b86:	00 
  400b87:	e9 87 f5 ff ff       	jmpq   400113 <nexti>

0000000000400b8c <v_Link>:
  400b8c:	bb 03 20 00 00       	mov    $0x2003,%ebx
  400b91:	81 e3 ff ff ff 7f    	and    $0x7fffffff,%ebx
  400b97:	89 d9                	mov    %ebx,%ecx
  400b99:	81 e1 ff ff ff 0f    	and    $0xfffffff,%ecx
  400b9f:	67 8b 04 8d 10 0e 60 	mov    0x600e10(,%ecx,4),%eax
  400ba6:	00 
  400ba7:	bb 00 20 00 00       	mov    $0x2000,%ebx
  400bac:	81 e3 ff ff ff 7f    	and    $0x7fffffff,%ebx
  400bb2:	89 d9                	mov    %ebx,%ecx
  400bb4:	81 e1 ff ff ff 0f    	and    $0xfffffff,%ecx
  400bba:	67 89 04 8d 10 0e 60 	mov    %eax,0x600e10(,%ecx,4)
  400bc1:	00 
  400bc2:	e9 4c f5 ff ff       	jmpq   400113 <nexti>

0000000000400bc7 <v_Rpt>:
  400bc7:	bb 05 20 00 00       	mov    $0x2005,%ebx
  400bcc:	81 e3 ff ff ff 7f    	and    $0x7fffffff,%ebx
  400bd2:	89 d9                	mov    %ebx,%ecx
  400bd4:	81 e1 ff ff ff 0f    	and    $0xfffffff,%ecx
  400bda:	67 8b 1c 8d 10 0e 60 	mov    0x600e10(,%ecx,4),%ebx
  400be1:	00 
  400be2:	ff cb                	dec    %ebx
  400be4:	89 d8                	mov    %ebx,%eax
  400be6:	bb 05 20 00 00       	mov    $0x2005,%ebx
  400beb:	81 e3 ff ff ff 7f    	and    $0x7fffffff,%ebx
  400bf1:	89 d9                	mov    %ebx,%ecx
  400bf3:	81 e1 ff ff ff 0f    	and    $0xfffffff,%ecx
  400bf9:	67 89 04 8d 10 0e 60 	mov    %eax,0x600e10(,%ecx,4)
  400c00:	00 
  400c01:	bb 00 00 00 00       	mov    $0x0,%ebx
  400c06:	81 e3 ff ff ff 7f    	and    $0x7fffffff,%ebx
  400c0c:	ff cb                	dec    %ebx
  400c0e:	39 d8                	cmp    %ebx,%eax
  400c10:	75 02                	jne    400c14 <v_Rpt+0x4d>
  400c12:	eb 2a                	jmp    400c3e <v_Repeat_end>
  400c14:	89 d0                	mov    %edx,%eax
  400c16:	bb ff ff ff 00       	mov    $0xffffff,%ebx
  400c1b:	81 e3 ff ff ff 7f    	and    $0x7fffffff,%ebx
  400c21:	21 d8                	and    %ebx,%eax
  400c23:	bb 00 20 00 00       	mov    $0x2000,%ebx
  400c28:	81 e3 ff ff ff 7f    	and    $0x7fffffff,%ebx
  400c2e:	89 d9                	mov    %ebx,%ecx
  400c30:	81 e1 ff ff ff 0f    	and    $0xfffffff,%ecx
  400c36:	67 89 04 8d 10 0e 60 	mov    %eax,0x600e10(,%ecx,4)
  400c3d:	00 

0000000000400c3e <v_Repeat_end>:
  400c3e:	e9 d0 f4 ff ff       	jmpq   400113 <nexti>

0000000000400c43 <v_Halt>:
  400c43:	bb 01 20 00 00       	mov    $0x2001,%ebx
  400c48:	81 e3 ff ff ff 7f    	and    $0x7fffffff,%ebx
  400c4e:	89 d9                	mov    %ebx,%ecx
  400c50:	81 e1 ff ff ff 0f    	and    $0xfffffff,%ecx
  400c56:	67 8b 04 8d 10 0e 60 	mov    0x600e10(,%ecx,4),%eax
  400c5d:	00 
  400c5e:	bb ff 00 00 00       	mov    $0xff,%ebx
  400c63:	81 e3 ff ff ff 7f    	and    $0x7fffffff,%ebx
  400c69:	21 d8                	and    %ebx,%eax
  400c6b:	25 ff 00 00 00       	and    $0xff,%eax
  400c70:	89 c3                	mov    %eax,%ebx
  400c72:	b8 01 00 00 00       	mov    $0x1,%eax
  400c77:	cd 80                	int    $0x80

0000000000400c79 <program>:
  400c79:	bb 00 00 00 00       	mov    $0x0,%ebx
  400c7e:	81 e3 ff ff ff 7f    	and    $0x7fffffff,%ebx
  400c84:	89 d8                	mov    %ebx,%eax
  400c86:	bb 03 00 00 00       	mov    $0x3,%ebx
  400c8b:	81 e3 ff ff ff 7f    	and    $0x7fffffff,%ebx
  400c91:	81 f3 00 00 00 80    	xor    $0x80000000,%ebx
  400c97:	48 8d 3c 25 a4 0c 40 	lea    0x400ca4,%rdi
  400c9e:	00 
  400c9f:	e9 d7 00 00 00       	jmpq   400d7b <si>
  400ca4:	bb 00 00 00 01       	mov    $0x1000000,%ebx
  400ca9:	81 e3 ff ff ff 7f    	and    $0x7fffffff,%ebx
  400caf:	48 8d 3c 25 bc 0c 40 	lea    0x400cbc,%rdi
  400cb6:	00 
  400cb7:	e9 bf 00 00 00       	jmpq   400d7b <si>
  400cbc:	bb 05 00 00 00       	mov    $0x5,%ebx
  400cc1:	81 e3 ff ff ff 7f    	and    $0x7fffffff,%ebx
  400cc7:	81 f3 00 00 00 80    	xor    $0x80000000,%ebx
  400ccd:	48 8d 3c 25 da 0c 40 	lea    0x400cda,%rdi
  400cd4:	00 
  400cd5:	e9 a1 00 00 00       	jmpq   400d7b <si>
  400cda:	bb 00 00 00 01       	mov    $0x1000000,%ebx
  400cdf:	81 e3 ff ff ff 7f    	and    $0x7fffffff,%ebx
  400ce5:	48 8d 3c 25 f2 0c 40 	lea    0x400cf2,%rdi
  400cec:	00 
  400ced:	e9 89 00 00 00       	jmpq   400d7b <si>
  400cf2:	bb 00 00 00 10       	mov    $0x10000000,%ebx
  400cf7:	81 e3 ff ff ff 7f    	and    $0x7fffffff,%ebx
  400cfd:	81 f3 00 00 00 80    	xor    $0x80000000,%ebx
  400d03:	48 8d 3c 25 0d 0d 40 	lea    0x400d0d,%rdi
  400d0a:	00 
  400d0b:	eb 6e                	jmp    400d7b <si>
  400d0d:	bb 00 00 00 33       	mov    $0x33000000,%ebx
  400d12:	81 e3 ff ff ff 7f    	and    $0x7fffffff,%ebx
  400d18:	48 8d 3c 25 22 0d 40 	lea    0x400d22,%rdi
  400d1f:	00 
  400d20:	eb 59                	jmp    400d7b <si>
  400d22:	bb 00 00 00 31       	mov    $0x31000000,%ebx
  400d27:	81 e3 ff ff ff 7f    	and    $0x7fffffff,%ebx
  400d2d:	48 8d 3c 25 37 0d 40 	lea    0x400d37,%rdi
  400d34:	00 
  400d35:	eb 44                	jmp    400d7b <si>
  400d37:	bb 00 00 00 00       	mov    $0x0,%ebx
  400d3c:	81 e3 ff ff ff 7f    	and    $0x7fffffff,%ebx
  400d42:	48 8d 3c 25 4c 0d 40 	lea    0x400d4c,%rdi
  400d49:	00 
  400d4a:	eb 2f                	jmp    400d7b <si>
  400d4c:	bb 07 00 00 50       	mov    $0x50000007,%ebx
  400d51:	81 e3 ff ff ff 7f    	and    $0x7fffffff,%ebx
  400d57:	48 8d 3c 25 61 0d 40 	lea    0x400d61,%rdi
  400d5e:	00 
  400d5f:	eb 1a                	jmp    400d7b <si>
  400d61:	bb 00 00 00 3f       	mov    $0x3f000000,%ebx
  400d66:	81 e3 ff ff ff 7f    	and    $0x7fffffff,%ebx
  400d6c:	48 8d 3c 25 76 0d 40 	lea    0x400d76,%rdi
  400d73:	00 
  400d74:	eb 05                	jmp    400d7b <si>
  400d76:	e9 98 f3 ff ff       	jmpq   400113 <nexti>

0000000000400d7b <si>:
  400d7b:	89 c1                	mov    %eax,%ecx
  400d7d:	89 d8                	mov    %ebx,%eax
  400d7f:	89 cb                	mov    %ecx,%ebx
  400d81:	89 d9                	mov    %ebx,%ecx
  400d83:	81 e1 ff ff ff 0f    	and    $0xfffffff,%ecx
  400d89:	67 89 04 8d 10 0e 60 	mov    %eax,0x600e10(,%ecx,4)
  400d90:	00 
  400d91:	ff c3                	inc    %ebx
  400d93:	89 d8                	mov    %ebx,%eax
  400d95:	ff e7                	jmpq   *%rdi

0000000000400d97 <doFill>:
  400d97:	89 d9                	mov    %ebx,%ecx
  400d99:	81 e1 ff ff ff 0f    	and    $0xfffffff,%ecx
  400d9f:	67 89 04 8d 10 0e 60 	mov    %eax,0x600e10(,%ecx,4)
  400da6:	00 
  400da7:	ff c3                	inc    %ebx
  400da9:	ff ce                	dec    %esi
  400dab:	83 fe ff             	cmp    $0xffffffff,%esi
  400dae:	74 0b                	je     400dbb <doFill+0x24>
  400db0:	4c 8d 04 25 97 0d 40 	lea    0x400d97,%r8
  400db7:	00 
  400db8:	41 ff e0             	jmpq   *%r8
  400dbb:	ff e7                	jmpq   *%rdi

0000000000400dbd <setupToClearParent>:
  400dbd:	bb 00 00 00 10       	mov    $0x10000000,%ebx
  400dc2:	81 e3 ff ff ff 7f    	and    $0x7fffffff,%ebx
  400dc8:	89 d8                	mov    %ebx,%eax
  400dca:	89 c6                	mov    %eax,%esi
  400dcc:	bb 00 00 00 00       	mov    $0x0,%ebx
  400dd1:	81 e3 ff ff ff 7f    	and    $0x7fffffff,%ebx
  400dd7:	89 d8                	mov    %ebx,%eax
  400dd9:	ff e7                	jmpq   *%rdi

0000000000400ddb <assertParentSize>:
  400ddb:	b8 00 00 00 10       	mov    $0x10000000,%eax
  400de0:	bb 00 00 00 10       	mov    $0x10000000,%ebx
  400de5:	81 e3 ff ff ff 7f    	and    $0x7fffffff,%ebx
  400deb:	39 d8                	cmp    %ebx,%eax
  400ded:	75 02                	jne    400df1 <assertParentSize+0x16>
  400def:	eb 1b                	jmp    400e0c <assertedParentSize>
  400df1:	bb 01 00 00 00       	mov    $0x1,%ebx
  400df6:	81 e3 ff ff ff 7f    	and    $0x7fffffff,%ebx
  400dfc:	89 d8                	mov    %ebx,%eax
  400dfe:	25 ff 00 00 00       	and    $0xff,%eax
  400e03:	89 c3                	mov    %eax,%ebx
  400e05:	b8 01 00 00 00       	mov    $0x1,%eax
  400e0a:	cd 80                	int    $0x80

0000000000400e0c <assertedParentSize>:
  400e0c:	ff e7                	jmpq   *%rdi
